CCS PCM C Compiler, Version 5.007, 61971               21-Jan-19 03:25

               Filename:   C:\Users\mrgunter\Documents\CCS C Projects\lcd_test\lcd_test.lst

               ROM used:   3411 words (42%)
                           Largest free fragment is 2048
               RAM used:   33 (9%) at main() level
                           60 (16%) worst case
               Stack used: 0 locations
               Stack size: 8

*
0000:  MOVLW  0C
0001:  MOVWF  0A
0002:  GOTO   465
0003:  NOP
.................... #include <lcd_test.h> 
.................... #include <16F877A.h> 
.................... //////// Standard Header file for the PIC16F877A device //////////////// 
.................... #device PIC16F877A 
0004:  BCF    0A.0
0005:  BCF    0A.1
0006:  BCF    0A.2
0007:  ADDWF  02,F
0008:  RETLW  28
0009:  RETLW  0C
000A:  RETLW  01
000B:  RETLW  06
000C:  DATA 0C,10
000D:  DATA A0,29
000E:  DATA E1,30
000F:  DATA 74,10
0010:  DATA C1,3C
0011:  DATA 61,39
0012:  DATA 69,10
0013:  DATA 20,10
0014:  DATA 20,10
0015:  DATA 20,00
0016:  DATA D3,30
0017:  DATA 61,3A
0018:  DATA 20,1D
0019:  DATA A0,12
001A:  DATA 32,32
001B:  DATA 20,10
001C:  DATA 20,10
001D:  DATA 20,10
001E:  DATA 00,00
001F:  DATA 25,19
0020:  DATA 64,10
0021:  DATA 20,10
0022:  DATA 20,10
0023:  DATA 20,10
0024:  DATA 20,00
0025:  DATA C4,30
0026:  DATA EB,34
0027:  DATA EB,30
0028:  DATA 20,1D
0029:  DATA A0,12
002A:  DATA 32,32
002B:  DATA 20,10
002C:  DATA 20,10
002D:  DATA 20,10
002E:  DATA 20,10
002F:  DATA 20,00
0030:  DATA 25,19
0031:  DATA 64,10
0032:  DATA 20,10
0033:  DATA 20,10
0034:  DATA 20,10
0035:  DATA 20,10
0036:  DATA 20,00
0037:  DATA 0C,10
0038:  DATA 20,3A
0039:  DATA 61,39
003A:  DATA 69,34
003B:  DATA A0,20
003C:  DATA F9,30
003D:  DATA F2,34
003E:  DATA 20,10
003F:  DATA 20,10
0040:  DATA 20,10
0041:  DATA 20,10
0042:  DATA 20,10
0043:  DATA 00,01
0044:  DATA C7,3A
0045:  DATA 6E,10
0046:  DATA 3A,10
0047:  DATA 25,19
0048:  DATA 64,10
0049:  DATA 20,10
004A:  DATA 20,10
004B:  DATA 20,10
004C:  DATA 20,10
004D:  DATA 00,01
004E:  DATA 25,19
004F:  DATA 64,10
0050:  DATA 20,10
0051:  DATA 20,10
0052:  DATA 20,10
0053:  DATA 20,10
0054:  DATA 20,10
0055:  DATA 20,00
0056:  DATA C1,3C
0057:  DATA 20,1D
0058:  DATA A0,12
0059:  DATA 32,32
005A:  DATA 20,10
005B:  DATA 20,10
005C:  DATA 20,10
005D:  DATA 20,10
005E:  DATA 20,10
005F:  DATA 20,10
0060:  DATA 20,00
0061:  DATA 25,19
0062:  DATA 64,10
0063:  DATA 20,10
0064:  DATA 20,10
0065:  DATA 20,10
0066:  DATA 20,00
0067:  DATA D9,34
0068:  DATA 6C,10
0069:  DATA 3A,10
006A:  DATA 32,18
006B:  DATA 25,19
006C:  DATA 64,10
006D:  DATA 20,10
006E:  DATA 20,10
006F:  DATA 20,00
0070:  DATA 32,18
0071:  DATA 25,19
0072:  DATA 64,10
0073:  DATA 20,10
0074:  DATA 20,00
0075:  DATA E7,3A
0076:  DATA 6E,10
0077:  DATA 61,32
0078:  DATA 69,10
0079:  DATA 3A,10
007A:  DATA 50,2D
007B:  DATA 54,10
007C:  DATA 20,10
007D:  DATA 20,10
007E:  DATA 00,01
007F:  DATA 50,2D
0080:  DATA 54,10
0081:  DATA 20,10
0082:  DATA 20,00
0083:  DATA D3,20
0084:  DATA 4C,10
0085:  DATA 20,10
0086:  DATA 20,00
0087:  DATA 43,29
0088:  DATA 53,10
0089:  DATA 20,10
008A:  DATA 20,00
008B:  DATA D0,22
008C:  DATA D2,29
008D:  DATA 20,10
008E:  DATA 20,00
008F:  DATA C3,2A
0090:  DATA 4D,10
0091:  DATA 20,10
0092:  DATA 20,00
0093:  DATA 43,2A
0094:  DATA 53,10
0095:  DATA 20,10
0096:  DATA 20,00
0097:  DATA D0,20
0098:  DATA 5A,10
0099:  DATA 20,10
009A:  DATA 20,00
009B:  DATA 8C,21
009C:  DATA 61,36
009D:  DATA 61,39
009E:  DATA A0,29
009F:  DATA E1,30
00A0:  DATA 74,10
00A1:  DATA C1,3C
00A2:  DATA 61,39
00A3:  DATA 69,00
00A4:  DATA D3,30
00A5:  DATA 61,3A
00A6:  DATA 20,1D
00A7:  DATA A0,12
00A8:  DATA 32,32
00A9:  DATA 20,10
00AA:  DATA 20,10
00AB:  DATA 20,10
00AC:  DATA 00,01
00AD:  DATA 25,19
00AE:  DATA 64,10
00AF:  DATA 20,10
00B0:  DATA 20,10
00B1:  DATA 20,10
00B2:  DATA 00,01
00B3:  DATA C4,30
00B4:  DATA EB,34
00B5:  DATA EB,30
00B6:  DATA 20,1D
00B7:  DATA A0,12
00B8:  DATA 32,32
00B9:  DATA 20,10
00BA:  DATA 20,10
00BB:  DATA 20,10
00BC:  DATA 20,10
00BD:  DATA 20,10
00BE:  DATA 20,00
00BF:  DATA 25,19
00C0:  DATA 64,10
00C1:  DATA 20,10
00C2:  DATA 20,10
00C3:  DATA 20,10
00C4:  DATA 20,00
00C5:  DATA 0C,15
00C6:  DATA 2A,15
00C7:  DATA 20,10
00C8:  DATA 41,26
00C9:  DATA 41,29
00CA:  DATA CD,10
00CB:  DATA 20,10
00CC:  DATA 2A,15
00CD:  DATA 2A,00
00CE:  DATA 0C,10
00CF:  DATA A0,29
00D0:  DATA E1,30
00D1:  DATA 74,10
00D2:  DATA C1,3C
00D3:  DATA 61,39
00D4:  DATA 69,00
00D5:  DATA 0C,10
00D6:  DATA 20,2A
00D7:  DATA 61,39
00D8:  DATA 69,34
00D9:  DATA A0,20
00DA:  DATA F9,30
00DB:  DATA F2,34
00DC:  DATA 00,01
00DD:  DATA 0C,10
00DE:  DATA A0,20
00DF:  DATA EC,30
00E0:  DATA F2,36
00E1:  DATA A0,20
00E2:  DATA F9,30
00E3:  DATA F2,34
00E4:  DATA 00,00
*
0262:  MOVF   47,W
0263:  CLRF   78
0264:  SUBWF  46,W
0265:  BTFSC  03.0
0266:  GOTO   26A
0267:  MOVF   46,W
0268:  MOVWF  77
0269:  GOTO   276
026A:  CLRF   77
026B:  MOVLW  08
026C:  MOVWF  48
026D:  RLF    46,F
026E:  RLF    77,F
026F:  MOVF   47,W
0270:  SUBWF  77,W
0271:  BTFSC  03.0
0272:  MOVWF  77
0273:  RLF    78,F
0274:  DECFSZ 48,F
0275:  GOTO   26D
0276:  RETURN
0277:  CLRF   77
0278:  CLRF   78
0279:  MOVF   46,W
027A:  BCF    03.0
027B:  BTFSC  47.0
027C:  ADDWF  77,F
027D:  RRF    77,F
027E:  RRF    78,F
027F:  BTFSC  47.1
0280:  ADDWF  77,F
0281:  RRF    77,F
0282:  RRF    78,F
0283:  BTFSC  47.2
0284:  ADDWF  77,F
0285:  RRF    77,F
0286:  RRF    78,F
0287:  BTFSC  47.3
0288:  ADDWF  77,F
0289:  RRF    77,F
028A:  RRF    78,F
028B:  BTFSC  47.4
028C:  ADDWF  77,F
028D:  RRF    77,F
028E:  RRF    78,F
028F:  BTFSC  47.5
0290:  ADDWF  77,F
0291:  RRF    77,F
0292:  RRF    78,F
0293:  BTFSC  47.6
0294:  ADDWF  77,F
0295:  RRF    77,F
0296:  RRF    78,F
0297:  BTFSC  47.7
0298:  ADDWF  77,F
0299:  RRF    77,F
029A:  RRF    78,F
029B:  RETURN
*
02F9:  MOVF   4A,W
02FA:  BTFSC  03.2
02FB:  GOTO   369
02FC:  MOVWF  52
02FD:  MOVF   4E,W
02FE:  BTFSC  03.2
02FF:  GOTO   369
0300:  ADDWF  52,F
0301:  BTFSC  03.0
0302:  GOTO   30A
0303:  MOVLW  7F
0304:  SUBWF  52,F
0305:  BTFSS  03.0
0306:  GOTO   369
0307:  BTFSC  03.2
0308:  GOTO   369
0309:  GOTO   30E
030A:  MOVLW  81
030B:  ADDWF  52,F
030C:  BTFSC  03.0
030D:  GOTO   369
030E:  MOVF   52,W
030F:  MOVWF  77
0310:  CLRF   78
0311:  CLRF   79
0312:  CLRF   7A
0313:  MOVF   4B,W
0314:  MOVWF  56
0315:  BSF    56.7
0316:  MOVF   4C,W
0317:  MOVWF  55
0318:  MOVF   4D,W
0319:  MOVWF  54
031A:  MOVLW  18
031B:  MOVWF  52
031C:  CLRF   53
031D:  BTFSS  54.0
031E:  GOTO   337
031F:  MOVF   51,W
0320:  ADDWF  7A,F
0321:  BTFSS  03.0
0322:  GOTO   329
0323:  INCF   79,F
0324:  BTFSS  03.2
0325:  GOTO   329
0326:  INCF   78,F
0327:  BTFSC  03.2
0328:  BSF    53.7
0329:  MOVF   50,W
032A:  ADDWF  79,F
032B:  BTFSS  03.0
032C:  GOTO   330
032D:  INCF   78,F
032E:  BTFSC  03.2
032F:  BSF    53.7
0330:  MOVF   4F,W
0331:  MOVWF  4C
0332:  BSF    4C.7
0333:  MOVF   4C,W
0334:  ADDWF  78,F
0335:  BTFSC  03.0
0336:  BSF    53.7
0337:  RLF    53,F
0338:  RRF    78,F
0339:  RRF    79,F
033A:  RRF    7A,F
033B:  RRF    56,F
033C:  RRF    55,F
033D:  RRF    54,F
033E:  BCF    03.0
033F:  DECFSZ 52,F
0340:  GOTO   31C
0341:  MOVLW  01
0342:  ADDWF  77,F
0343:  BTFSC  03.0
0344:  GOTO   369
0345:  BTFSC  78.7
0346:  GOTO   34E
0347:  RLF    56,F
0348:  RLF    7A,F
0349:  RLF    79,F
034A:  RLF    78,F
034B:  DECF   77,F
034C:  BTFSC  03.2
034D:  GOTO   369
034E:  BTFSS  56.7
034F:  GOTO   35F
0350:  INCF   7A,F
0351:  BTFSS  03.2
0352:  GOTO   35F
0353:  INCF   79,F
0354:  BTFSS  03.2
0355:  GOTO   35F
0356:  INCF   78,F
0357:  BTFSS  03.2
0358:  GOTO   35F
0359:  RRF    78,F
035A:  RRF    79,F
035B:  RRF    7A,F
035C:  INCF   77,F
035D:  BTFSC  03.2
035E:  GOTO   369
035F:  MOVF   4B,W
0360:  MOVWF  53
0361:  MOVF   4F,W
0362:  XORWF  53,F
0363:  BTFSS  53.7
0364:  GOTO   367
0365:  BSF    78.7
0366:  GOTO   36D
0367:  BCF    78.7
0368:  GOTO   36D
0369:  CLRF   77
036A:  CLRF   78
036B:  CLRF   79
036C:  CLRF   7A
036D:  RETURN
*
03C7:  MOVLW  20
03C8:  BTFSS  3D.4
03C9:  MOVLW  30
03CA:  MOVWF  3E
03CB:  MOVF   3C,W
03CC:  MOVWF  77
03CD:  BTFSS  3C.7
03CE:  GOTO   3D7
03CF:  COMF   77,F
03D0:  INCF   77,F
03D1:  MOVF   77,W
03D2:  MOVWF  3C
03D3:  MOVLW  2D
03D4:  MOVWF  3E
03D5:  BSF    3D.7
03D6:  BSF    3D.0
03D7:  MOVF   3C,W
03D8:  MOVWF  46
03D9:  MOVLW  64
03DA:  MOVWF  47
03DB:  CALL   262
03DC:  MOVF   77,W
03DD:  MOVWF  3C
03DE:  MOVLW  30
03DF:  ADDWF  78,W
03E0:  MOVWF  3F
03E1:  MOVF   3C,W
03E2:  MOVWF  46
03E3:  MOVLW  0A
03E4:  MOVWF  47
03E5:  CALL   262
03E6:  MOVLW  30
03E7:  ADDWF  77,W
03E8:  MOVWF  41
03E9:  MOVLW  30
03EA:  ADDWF  78,W
03EB:  MOVWF  40
03EC:  MOVF   3E,W
03ED:  MOVWF  77
03EE:  MOVLW  30
03EF:  SUBWF  3F,W
03F0:  BTFSC  03.2
03F1:  GOTO   3F6
03F2:  BSF    3D.1
03F3:  BTFSC  3D.7
03F4:  BSF    3D.2
03F5:  GOTO   40A
03F6:  BTFSC  3D.2
03F7:  GOTO   40A
03F8:  MOVF   3E,W
03F9:  MOVWF  3F
03FA:  BTFSC  3D.1
03FB:  GOTO   401
03FC:  MOVLW  30
03FD:  SUBWF  40,W
03FE:  BTFSC  03.2
03FF:  GOTO   404
0400:  BSF    3D.0
0401:  BTFSC  3D.7
0402:  BSF    3D.1
0403:  GOTO   40A
0404:  BTFSS  03.2
0405:  BSF    3D.0
0406:  BTFSS  03.2
0407:  GOTO   40A
0408:  MOVF   3F,W
0409:  MOVWF  40
040A:  BTFSC  3D.2
040B:  GOTO   411
040C:  BTFSC  3D.1
040D:  GOTO   414
040E:  BTFSC  3D.0
040F:  GOTO   417
0410:  GOTO   41A
0411:  MOVF   3E,W
0412:  MOVWF  49
0413:  CALL   39B
0414:  MOVF   3F,W
0415:  MOVWF  49
0416:  CALL   39B
0417:  MOVF   40,W
0418:  MOVWF  49
0419:  CALL   39B
041A:  MOVF   41,W
041B:  MOVWF  49
041C:  CALL   39B
041D:  RETURN
041E:  BTFSC  03.1
041F:  GOTO   423
0420:  MOVLW  51
0421:  MOVWF  04
0422:  BCF    03.7
0423:  CLRF   77
0424:  CLRF   78
0425:  CLRF   79
0426:  CLRF   7A
0427:  CLRF   51
0428:  CLRF   52
0429:  CLRF   53
042A:  CLRF   54
042B:  MOVF   50,W
042C:  IORWF  4F,W
042D:  IORWF  4E,W
042E:  IORWF  4D,W
042F:  BTFSC  03.2
0430:  GOTO   461
0431:  MOVLW  20
0432:  MOVWF  55
0433:  BCF    03.0
0434:  RLF    49,F
0435:  RLF    4A,F
0436:  RLF    4B,F
0437:  RLF    4C,F
0438:  RLF    51,F
0439:  RLF    52,F
043A:  RLF    53,F
043B:  RLF    54,F
043C:  MOVF   50,W
043D:  SUBWF  54,W
043E:  BTFSS  03.2
043F:  GOTO   44A
0440:  MOVF   4F,W
0441:  SUBWF  53,W
0442:  BTFSS  03.2
0443:  GOTO   44A
0444:  MOVF   4E,W
0445:  SUBWF  52,W
0446:  BTFSS  03.2
0447:  GOTO   44A
0448:  MOVF   4D,W
0449:  SUBWF  51,W
044A:  BTFSS  03.0
044B:  GOTO   45B
044C:  MOVF   4D,W
044D:  SUBWF  51,F
044E:  MOVF   4E,W
044F:  BTFSS  03.0
0450:  INCFSZ 4E,W
0451:  SUBWF  52,F
0452:  MOVF   4F,W
0453:  BTFSS  03.0
0454:  INCFSZ 4F,W
0455:  SUBWF  53,F
0456:  MOVF   50,W
0457:  BTFSS  03.0
0458:  INCFSZ 50,W
0459:  SUBWF  54,F
045A:  BSF    03.0
045B:  RLF    77,F
045C:  RLF    78,F
045D:  RLF    79,F
045E:  RLF    7A,F
045F:  DECFSZ 55,F
0460:  GOTO   433
0461:  MOVF   51,W
0462:  MOVWF  00
0463:  INCF   04,F
0464:  MOVF   52,W
0465:  MOVWF  00
0466:  INCF   04,F
0467:  MOVF   53,W
0468:  MOVWF  00
0469:  INCF   04,F
046A:  MOVF   54,W
046B:  MOVWF  00
046C:  RETURN
046D:  MOVF   04,W
046E:  MOVWF  41
046F:  MOVF   40,W
0470:  MOVWF  43
0471:  BTFSC  03.2
0472:  GOTO   48C
0473:  MOVF   3F,W
0474:  MOVWF  4D
0475:  MOVF   3E,W
0476:  MOVWF  4C
0477:  MOVF   3D,W
0478:  MOVWF  4B
0479:  MOVF   3C,W
047A:  MOVWF  4A
047B:  CLRF   51
047C:  CLRF   50
047D:  MOVLW  20
047E:  MOVWF  4F
047F:  MOVLW  82
0480:  MOVWF  4E
0481:  CALL   2F9
0482:  MOVF   7A,W
0483:  MOVWF  3F
0484:  MOVF   79,W
0485:  MOVWF  3E
0486:  MOVF   78,W
0487:  MOVWF  3D
0488:  MOVF   77,W
0489:  MOVWF  3C
048A:  DECFSZ 43,F
048B:  GOTO   473
048C:  MOVF   3F,W
048D:  MOVWF  4C
048E:  MOVF   3E,W
048F:  MOVWF  4B
0490:  MOVF   3D,W
0491:  MOVWF  4A
0492:  MOVF   3C,W
0493:  MOVWF  49
0494:  MOVF   49,W
0495:  SUBLW  B6
0496:  MOVWF  49
0497:  CLRF   7A
0498:  MOVF   4A,W
0499:  MOVWF  4D
049A:  BSF    4A.7
049B:  BCF    03.0
049C:  RRF    4A,F
049D:  RRF    4B,F
049E:  RRF    4C,F
049F:  RRF    7A,F
04A0:  RRF    79,F
04A1:  RRF    78,F
04A2:  RRF    77,F
04A3:  DECFSZ 49,F
04A4:  GOTO   49B
04A5:  BTFSS  4D.7
04A6:  GOTO   4B2
04A7:  COMF   77,F
04A8:  COMF   78,F
04A9:  COMF   79,F
04AA:  COMF   7A,F
04AB:  INCF   77,F
04AC:  BTFSC  03.2
04AD:  INCF   78,F
04AE:  BTFSC  03.2
04AF:  INCF   79,F
04B0:  BTFSC  03.2
04B1:  INCF   7A,F
04B2:  MOVF   7A,W
04B3:  MOVWF  3F
04B4:  MOVF   79,W
04B5:  MOVWF  3E
04B6:  MOVF   78,W
04B7:  MOVWF  3D
04B8:  MOVF   77,W
04B9:  MOVWF  3C
04BA:  BTFSS  3F.7
04BB:  GOTO   4C9
04BC:  DECF   41,F
04BD:  BSF    41.5
04BE:  COMF   3C,F
04BF:  COMF   3D,F
04C0:  COMF   3E,F
04C1:  COMF   3F,F
04C2:  INCF   3C,F
04C3:  BTFSC  03.2
04C4:  INCF   3D,F
04C5:  BTFSC  03.2
04C6:  INCF   3E,F
04C7:  BTFSC  03.2
04C8:  INCF   3F,F
04C9:  MOVLW  3B
04CA:  MOVWF  48
04CB:  MOVLW  9A
04CC:  MOVWF  47
04CD:  MOVLW  CA
04CE:  MOVWF  46
04CF:  CLRF   45
04D0:  MOVLW  0A
04D1:  MOVWF  43
04D2:  MOVF   40,W
04D3:  BTFSC  03.2
04D4:  INCF   41,F
04D5:  BSF    03.1
04D6:  MOVLW  3C
04D7:  MOVWF  04
04D8:  BCF    03.7
04D9:  MOVF   3F,W
04DA:  MOVWF  4C
04DB:  MOVF   3E,W
04DC:  MOVWF  4B
04DD:  MOVF   3D,W
04DE:  MOVWF  4A
04DF:  MOVF   3C,W
04E0:  MOVWF  49
04E1:  MOVF   48,W
04E2:  MOVWF  50
04E3:  MOVF   47,W
04E4:  MOVWF  4F
04E5:  MOVF   46,W
04E6:  MOVWF  4E
04E7:  MOVF   45,W
04E8:  MOVWF  4D
04E9:  CALL   41E
04EA:  MOVF   78,W
04EB:  MOVF   77,F
04EC:  BTFSS  03.2
04ED:  GOTO   501
04EE:  INCF   40,W
04EF:  SUBWF  43,W
04F0:  BTFSC  03.2
04F1:  GOTO   501
04F2:  MOVF   41,W
04F3:  BTFSC  03.2
04F4:  GOTO   503
04F5:  ANDLW  0F
04F6:  SUBWF  43,W
04F7:  BTFSC  03.2
04F8:  GOTO   4FB
04F9:  BTFSC  03.0
04FA:  GOTO   533
04FB:  BTFSC  41.7
04FC:  GOTO   533
04FD:  BTFSC  41.6
04FE:  GOTO   503
04FF:  MOVLW  20
0500:  GOTO   52F
0501:  MOVLW  20
0502:  ANDWF  41,F
0503:  BTFSS  41.5
0504:  GOTO   511
0505:  BCF    41.5
0506:  MOVF   40,W
0507:  BTFSS  03.2
0508:  DECF   41,F
0509:  MOVF   77,W
050A:  MOVWF  41
050B:  MOVLW  2D
050C:  MOVWF  49
050D:  CALL   39B
050E:  MOVF   41,W
050F:  MOVWF  77
0510:  CLRF   41
0511:  MOVF   40,W
0512:  SUBWF  43,W
0513:  BTFSS  03.2
0514:  GOTO   51F
0515:  MOVF   77,W
0516:  MOVWF  41
0517:  MOVLW  2E
0518:  MOVWF  49
0519:  CALL   39B
051A:  MOVF   41,W
051B:  MOVWF  77
051C:  MOVLW  20
051D:  ANDWF  41,F
051E:  MOVLW  00
051F:  MOVLW  30
0520:  BTFSS  41.5
0521:  GOTO   52F
0522:  BCF    41.5
0523:  MOVF   40,W
0524:  BTFSS  03.2
0525:  DECF   41,F
0526:  MOVF   77,W
0527:  MOVWF  41
0528:  MOVLW  2D
0529:  MOVWF  49
052A:  CALL   39B
052B:  MOVF   41,W
052C:  MOVWF  77
052D:  CLRF   41
052E:  MOVLW  30
052F:  ADDWF  77,F
0530:  MOVF   77,W
0531:  MOVWF  49
0532:  CALL   39B
0533:  BCF    03.1
0534:  MOVF   48,W
0535:  MOVWF  4C
0536:  MOVF   47,W
0537:  MOVWF  4B
0538:  MOVF   46,W
0539:  MOVWF  4A
053A:  MOVF   45,W
053B:  MOVWF  49
053C:  CLRF   50
053D:  CLRF   4F
053E:  CLRF   4E
053F:  MOVLW  0A
0540:  MOVWF  4D
0541:  CALL   41E
0542:  MOVF   7A,W
0543:  MOVWF  48
0544:  MOVF   79,W
0545:  MOVWF  47
0546:  MOVF   78,W
0547:  MOVWF  46
0548:  MOVF   77,W
0549:  MOVWF  45
054A:  DECFSZ 43,F
054B:  GOTO   4D5
054C:  BCF    0A.3
054D:  BCF    0A.4
054E:  GOTO   6E4 (RETURN)
054F:  MOVF   0B,W
0550:  MOVWF  3C
0551:  BCF    0B.7
0552:  BSF    03.5
0553:  BSF    03.6
0554:  BSF    0C.7
0555:  BSF    0C.0
0556:  NOP
0557:  NOP
0558:  BCF    03.5
0559:  MOVF   0C,W
055A:  ANDLW  7F
055B:  BTFSC  03.2
055C:  GOTO   596
055D:  BCF    03.6
055E:  MOVWF  3D
055F:  BSF    03.6
0560:  MOVF   0D,W
0561:  BCF    03.6
0562:  MOVWF  3E
0563:  BSF    03.6
0564:  MOVF   0F,W
0565:  BCF    03.6
0566:  MOVWF  3F
0567:  MOVF   3D,W
0568:  MOVWF  49
0569:  CALL   39B
056A:  MOVF   3E,W
056B:  BSF    03.6
056C:  MOVWF  0D
056D:  BCF    03.6
056E:  MOVF   3F,W
056F:  BSF    03.6
0570:  MOVWF  0F
0571:  BSF    03.5
0572:  BSF    0C.7
0573:  BSF    0C.0
0574:  NOP
0575:  NOP
0576:  BCF    03.5
0577:  RLF    0C,W
0578:  RLF    0E,W
0579:  ANDLW  7F
057A:  BTFSC  03.2
057B:  GOTO   596
057C:  BCF    03.6
057D:  MOVWF  3D
057E:  BSF    03.6
057F:  MOVF   0D,W
0580:  BCF    03.6
0581:  MOVWF  3E
0582:  BSF    03.6
0583:  MOVF   0F,W
0584:  BCF    03.6
0585:  MOVWF  3F
0586:  MOVF   3D,W
0587:  MOVWF  49
0588:  CALL   39B
0589:  MOVF   3E,W
058A:  BSF    03.6
058B:  MOVWF  0D
058C:  BCF    03.6
058D:  MOVF   3F,W
058E:  BSF    03.6
058F:  MOVWF  0F
0590:  INCF   0D,F
0591:  BTFSC  03.2
0592:  INCF   0F,F
0593:  BCF    03.6
0594:  GOTO   552
0595:  BSF    03.6
0596:  BCF    03.6
0597:  BTFSC  3C.7
0598:  BSF    0B.7
0599:  RETURN
*
05AE:  MOVLW  8E
05AF:  MOVWF  77
05B0:  MOVF   47,W
05B1:  MOVWF  78
05B2:  MOVF   46,W
05B3:  MOVWF  79
05B4:  CLRF   7A
05B5:  MOVF   78,F
05B6:  BTFSS  03.2
05B7:  GOTO   5C2
05B8:  MOVF   79,W
05B9:  MOVWF  78
05BA:  CLRF   79
05BB:  MOVLW  08
05BC:  SUBWF  77,F
05BD:  MOVF   78,F
05BE:  BTFSS  03.2
05BF:  GOTO   5C2
05C0:  CLRF   77
05C1:  GOTO   5CA
05C2:  BCF    03.0
05C3:  BTFSC  78.7
05C4:  GOTO   5C9
05C5:  RLF    79,F
05C6:  RLF    78,F
05C7:  DECF   77,F
05C8:  GOTO   5C2
05C9:  BCF    78.7
*
073D:  BSF    0A.0
073E:  BSF    0A.1
073F:  BSF    0A.2
0740:  ADDWF  02,F
0741:  GOTO   677
0742:  GOTO   681
0743:  GOTO   68B
0744:  GOTO   695
0745:  GOTO   69F
0746:  GOTO   6A9
0747:  GOTO   6B3
0748:  MOVF   0B,W
0749:  MOVWF  3D
074A:  BCF    0B.7
074B:  BSF    03.5
074C:  BSF    03.6
074D:  BSF    0C.7
074E:  BSF    0C.0
074F:  NOP
0750:  NOP
0751:  BTFSC  03.0
0752:  GOTO   77A
0753:  BCF    03.5
0754:  MOVF   0C,W
0755:  ANDLW  7F
0756:  BCF    03.6
0757:  MOVWF  3E
0758:  BSF    03.6
0759:  MOVF   0D,W
075A:  BCF    03.6
075B:  MOVWF  3F
075C:  BSF    03.6
075D:  MOVF   0F,W
075E:  BCF    03.6
075F:  MOVWF  40
0760:  MOVF   3E,W
0761:  MOVWF  49
0762:  CALL   39B
0763:  MOVF   3F,W
0764:  BSF    03.6
0765:  MOVWF  0D
0766:  BCF    03.6
0767:  MOVF   40,W
0768:  BSF    03.6
0769:  MOVWF  0F
076A:  BSF    03.5
076B:  BSF    0C.7
076C:  BSF    0C.0
076D:  NOP
076E:  NOP
076F:  BCF    03.5
0770:  BCF    03.6
0771:  DECFSZ 3C,F
0772:  GOTO   774
0773:  GOTO   777
0774:  BSF    03.5
0775:  BSF    03.6
0776:  GOTO   77A
0777:  GOTO   799
0778:  BSF    03.5
0779:  BSF    03.6
077A:  BCF    03.5
077B:  RLF    0C,W
077C:  RLF    0E,W
077D:  ANDLW  7F
077E:  BCF    03.6
077F:  MOVWF  3E
0780:  BSF    03.6
0781:  MOVF   0D,W
0782:  BCF    03.6
0783:  MOVWF  3F
0784:  BSF    03.6
0785:  MOVF   0F,W
0786:  BCF    03.6
0787:  MOVWF  40
0788:  MOVF   3E,W
0789:  MOVWF  49
078A:  CALL   39B
078B:  MOVF   3F,W
078C:  BSF    03.6
078D:  MOVWF  0D
078E:  BCF    03.6
078F:  MOVF   40,W
0790:  BSF    03.6
0791:  MOVWF  0F
0792:  INCF   0D,F
0793:  BTFSC  03.2
0794:  INCF   0F,F
0795:  BCF    03.0
0796:  BCF    03.6
0797:  DECFSZ 3C,F
0798:  GOTO   74B
0799:  BTFSC  3D.7
079A:  BSF    0B.7
079B:  RETURN
079C:  MOVLW  20
079D:  BTFSS  3D.4
079E:  MOVLW  30
079F:  MOVWF  3E
07A0:  MOVF   3C,W
07A1:  MOVWF  77
07A2:  BTFSS  3C.7
07A3:  GOTO   7AC
07A4:  COMF   77,F
07A5:  INCF   77,F
07A6:  MOVF   77,W
07A7:  MOVWF  3C
07A8:  MOVLW  2D
07A9:  MOVWF  3E
07AA:  BSF    3D.7
07AB:  BSF    3D.0
07AC:  MOVF   3C,W
07AD:  MOVWF  46
07AE:  MOVLW  64
07AF:  MOVWF  47
07B0:  CALL   262
07B1:  MOVF   77,W
07B2:  MOVWF  3C
07B3:  MOVLW  30
07B4:  ADDWF  78,W
07B5:  MOVWF  3F
07B6:  MOVF   3C,W
07B7:  MOVWF  46
07B8:  MOVLW  0A
07B9:  MOVWF  47
07BA:  CALL   262
07BB:  MOVLW  30
07BC:  ADDWF  77,W
07BD:  MOVWF  41
07BE:  MOVLW  30
07BF:  ADDWF  78,W
07C0:  MOVWF  40
07C1:  MOVF   3E,W
07C2:  MOVWF  77
07C3:  MOVLW  30
07C4:  SUBWF  3F,W
07C5:  BTFSC  03.2
07C6:  GOTO   7CB
07C7:  BSF    3D.1
07C8:  BTFSC  3D.7
07C9:  BSF    3D.2
07CA:  GOTO   7DF
07CB:  MOVF   3E,W
07CC:  MOVWF  3F
07CD:  MOVLW  20
07CE:  MOVWF  3E
07CF:  MOVLW  30
07D0:  SUBWF  40,W
07D1:  BTFSC  03.2
07D2:  GOTO   7D7
07D3:  BSF    3D.0
07D4:  BTFSC  3D.7
07D5:  BSF    3D.1
07D6:  GOTO   7DF
07D7:  BTFSS  03.2
07D8:  BSF    3D.0
07D9:  BTFSS  03.2
07DA:  GOTO   7DF
07DB:  MOVF   3F,W
07DC:  MOVWF  40
07DD:  MOVLW  20
07DE:  MOVWF  3F
07DF:  BTFSC  3D.2
07E0:  GOTO   7E6
07E1:  BTFSC  3D.1
07E2:  GOTO   7E9
07E3:  BTFSC  3D.0
07E4:  GOTO   7EC
07E5:  GOTO   7EF
07E6:  MOVF   3E,W
07E7:  MOVWF  49
07E8:  CALL   39B
07E9:  MOVF   3F,W
07EA:  MOVWF  49
07EB:  CALL   39B
07EC:  MOVF   40,W
07ED:  MOVWF  49
07EE:  CALL   39B
07EF:  MOVF   41,W
07F0:  MOVWF  49
07F1:  CALL   39B
07F2:  RETURN
*
0B58:  BSF    0A.0
0B59:  BSF    0A.1
0B5A:  BCF    0A.2
0B5B:  ADDWF  02,F
0B5C:  GOTO   2D3
0B5D:  GOTO   2DD
0B5E:  GOTO   2E7
0B5F:  GOTO   2F1
0B60:  GOTO   2FB
0B61:  GOTO   305
0B62:  GOTO   30F
....................  
.................... #list 
....................  
....................  
.................... #device ADC=10  
....................  
.................... #use delay(clock = 4000000) 
*
00E5:  MOVLW  4A
00E6:  MOVWF  04
00E7:  BCF    03.7
00E8:  MOVF   00,W
00E9:  BTFSC  03.2
00EA:  GOTO   0F9
00EB:  MOVLW  01
00EC:  MOVWF  78
00ED:  CLRF   77
00EE:  DECFSZ 77,F
00EF:  GOTO   0EE
00F0:  DECFSZ 78,F
00F1:  GOTO   0ED
00F2:  MOVLW  4A
00F3:  MOVWF  77
00F4:  DECFSZ 77,F
00F5:  GOTO   0F4
00F6:  GOTO   0F7
00F7:  DECFSZ 00,F
00F8:  GOTO   0EB
00F9:  RETURN
....................  
.................... #define LCD_RS_PIN PIN_D0 
.................... #define LCD_RW_PIN PIN_D1 
.................... #define LCD_ENABLE_PIN PIN_D2 
.................... #define LCD_DATA4 PIN_D3 
.................... #define LCD_DATA5 PIN_D4 
.................... #define LCD_DATA6 PIN_D5 
.................... #define LCD_DATA7 PIN_D6 
....................  
.................... #define menu PIN_C0 
.................... #define select PIN_C1 
.................... #define done PIN_C2 
.................... #define set PIN_C3 
....................  
.................... #define alarm PIN_B7 
....................  
....................  
....................  
.................... unsigned long int bilgi; 
.................... float V, T; 
....................  
.................... #fuses XT, NOWDT, NOPROTECT, NOBROWNOUT, NOLVP, NOPUT, NOCPD, NOPUT, NODEBUG, NOWRT 
....................  
.................... #include <lcd.c> 
.................... /////////////////////////////////////////////////////////////////////////////// 
.................... ////                             LCD.C                                     //// 
.................... ////                 Driver for common LCD modules                         //// 
.................... ////                                                                       //// 
.................... ////  lcd_init()   Must be called before any other function.               //// 
.................... ////                                                                       //// 
.................... ////  lcd_putc(c)  Will display c on the next position of the LCD.         //// 
.................... ////                 \a  Set cursor position to upper left                 //// 
.................... ////                 \f  Clear display, set cursor to upper left           //// 
.................... ////                 \n  Go to start of second line                        //// 
.................... ////                 \b  Move back one position                            //// 
.................... ////              If LCD_EXTENDED_NEWLINE is defined, the \n character     //// 
.................... ////              will erase all remanining characters on the current      //// 
.................... ////              line, and move the cursor to the beginning of the next   //// 
.................... ////              line.                                                    //// 
.................... ////              If LCD_EXTENDED_NEWLINE is defined, the \r character     //// 
.................... ////              will move the cursor to the start of the current         //// 
.................... ////              line.                                                    //// 
.................... ////                                                                       //// 
.................... ////  lcd_gotoxy(x,y) Set write position on LCD (upper left is 1,1)        //// 
.................... ////                                                                       //// 
.................... ////  lcd_getc(x,y)   Returns character at position x,y on LCD             //// 
.................... ////                                                                       //// 
.................... ////  lcd_cursor_on(int1 on)   Turn the cursor on (on=TRUE) or off         //// 
.................... ////              (on=FALSE).                                              //// 
.................... ////                                                                       //// 
.................... ////  lcd_set_cgram_char(w, *p)   Write a custom character to the CGRAM.   //// 
.................... ////                                                                       //// 
.................... ////                                                                       //// 
.................... ////  CONFIGURATION                                                        //// 
.................... ////  The LCD can be configured in one of two ways: a.) port access or     //// 
.................... ////  b.) pin access.  Port access requires the entire 7 bit interface     //// 
.................... ////  connected to one GPIO port, and the data bits (D4:D7 of the LCD)     //// 
.................... ////  connected to sequential pins on the GPIO.  Pin access                //// 
.................... ////  has no requirements, all 7 bits of the control interface can         //// 
.................... ////  can be connected to any GPIO using several ports.                    //// 
.................... ////                                                                       //// 
.................... ////  To use port access, #define LCD_DATA_PORT to the SFR location of     //// 
.................... ////  of the GPIO port that holds the interface, -AND- edit LCD_PIN_MAP    //// 
.................... ////  of this file to configure the pin order.  If you are using a         //// 
.................... ////  baseline PIC (PCB), then LCD_OUTPUT_MAP and LCD_INPUT_MAP also must  //// 
.................... ////  be defined.                                                          //// 
.................... ////                                                                       //// 
.................... ////  Example of port access:                                              //// 
.................... ////     #define LCD_DATA_PORT getenv("SFR:PORTD")                         //// 
.................... ////                                                                       //// 
.................... ////  To use pin access, the following pins must be defined:               //// 
.................... ////     LCD_ENABLE_PIN                                                    //// 
.................... ////     LCD_RS_PIN                                                        //// 
.................... ////     LCD_RW_PIN                                                        //// 
.................... ////     LCD_DATA4                                                         //// 
.................... ////     LCD_DATA5                                                         //// 
.................... ////     LCD_DATA6                                                         //// 
.................... ////     LCD_DATA7                                                         //// 
.................... ////                                                                       //// 
.................... ////  Example of pin access:                                               //// 
.................... ////     #define LCD_ENABLE_PIN  PIN_E0                                    //// 
.................... ////     #define LCD_RS_PIN      PIN_E1                                    //// 
.................... ////     #define LCD_RW_PIN      PIN_E2                                    //// 
.................... ////     #define LCD_DATA4       PIN_D4                                    //// 
.................... ////     #define LCD_DATA5       PIN_D5                                    //// 
.................... ////     #define LCD_DATA6       PIN_D6                                    //// 
.................... ////     #define LCD_DATA7       PIN_D7                                    //// 
.................... ////                                                                       //// 
.................... /////////////////////////////////////////////////////////////////////////////// 
.................... ////        (C) Copyright 1996,2010 Custom Computer Services           //// 
.................... //// This source code may only be used by licensed users of the CCS C  //// 
.................... //// compiler.  This source code may only be distributed to other      //// 
.................... //// licensed users of the CCS C compiler.  No other use, reproduction //// 
.................... //// or distribution is permitted without written permission.          //// 
.................... //// Derivative programs created using this software in object code    //// 
.................... //// form are not restricted in any way.                               //// 
.................... /////////////////////////////////////////////////////////////////////////// 
....................  
.................... #ifndef __LCD_C__ 
.................... #define __LCD_C__ 
....................  
.................... // define the pinout. 
.................... // only required if port access is being used. 
.................... typedef struct   
.................... {                            // This structure is overlayed 
....................    int1 enable;           // on to an I/O port to gain 
....................    int1 rs;               // access to the LCD pins. 
....................    int1 rw;               // The bits are allocated from 
....................    int1 unused;           // low order up.  ENABLE will 
....................    unsigned int     data : 4;         // be LSB pin of that port. 
....................   #if defined(__PCD__)       // The port used will be LCD_DATA_PORT. 
....................    unsigned int    reserved: 8; 
....................   #endif 
.................... } LCD_PIN_MAP; 
....................  
.................... // this is to improve compatability with previous LCD drivers that accepted 
.................... // a define labeled 'use_portb_lcd' that configured the LCD onto port B. 
.................... #if ((defined(use_portb_lcd)) && (use_portb_lcd==TRUE)) 
....................  #define LCD_DATA_PORT getenv("SFR:PORTB") 
.................... #endif 
....................  
.................... #if defined(__PCB__) 
....................    // these definitions only need to be modified for baseline PICs. 
....................    // all other PICs use LCD_PIN_MAP or individual LCD_xxx pin definitions. 
.................... /*                                    EN, RS,   RW,   UNUSED,  DATA  */ 
....................  const LCD_PIN_MAP LCD_OUTPUT_MAP =  {0,  0,    0,    0,       0}; 
....................  const LCD_PIN_MAP LCD_INPUT_MAP =   {0,  0,    0,    0,       0xF}; 
.................... #endif 
....................  
.................... ////////////////////// END CONFIGURATION /////////////////////////////////// 
....................  
.................... #ifndef LCD_ENABLE_PIN 
....................    #define lcd_output_enable(x) lcdlat.enable=x 
....................    #define lcd_enable_tris()   lcdtris.enable=0 
.................... #else 
....................    #define lcd_output_enable(x) output_bit(LCD_ENABLE_PIN, x) 
....................    #define lcd_enable_tris()  output_drive(LCD_ENABLE_PIN) 
.................... #endif 
....................  
.................... #ifndef LCD_RS_PIN 
....................    #define lcd_output_rs(x) lcdlat.rs=x 
....................    #define lcd_rs_tris()   lcdtris.rs=0 
.................... #else 
....................    #define lcd_output_rs(x) output_bit(LCD_RS_PIN, x) 
....................    #define lcd_rs_tris()  output_drive(LCD_RS_PIN) 
.................... #endif 
....................  
.................... #ifndef LCD_RW_PIN 
....................    #define lcd_output_rw(x) lcdlat.rw=x 
....................    #define lcd_rw_tris()   lcdtris.rw=0 
.................... #else 
....................    #define lcd_output_rw(x) output_bit(LCD_RW_PIN, x) 
....................    #define lcd_rw_tris()  output_drive(LCD_RW_PIN) 
.................... #endif 
....................  
.................... // original version of this library incorrectly labeled LCD_DATA0 as LCD_DATA4, 
.................... // LCD_DATA1 as LCD_DATA5, and so on.  this block of code makes the driver 
.................... // compatible with any code written for the original library 
.................... #if (defined(LCD_DATA0) && defined(LCD_DATA1) && defined(LCD_DATA2) && defined(LCD_DATA3) && !defined(LCD_DATA4) && !defined(LCD_DATA5) && !defined(LCD_DATA6) && !defined(LCD_DATA7)) 
....................    #define  LCD_DATA4    LCD_DATA0 
....................    #define  LCD_DATA5    LCD_DATA1 
....................    #define  LCD_DATA6    LCD_DATA2 
....................    #define  LCD_DATA7    LCD_DATA3 
.................... #endif 
....................  
.................... #ifndef LCD_DATA4 
.................... #ifndef LCD_DATA_PORT 
....................    #if defined(__PCB__) 
....................       #define LCD_DATA_PORT      0x06     //portb 
....................       #define set_tris_lcd(x)   set_tris_b(x) 
....................    #else 
....................      #if defined(PIN_D0) 
....................       #define LCD_DATA_PORT      getenv("SFR:PORTD")     //portd 
....................      #else 
....................       #define LCD_DATA_PORT      getenv("SFR:PORTB")     //portb 
....................      #endif 
....................    #endif    
.................... #endif 
....................  
.................... #if defined(__PCB__) 
....................    LCD_PIN_MAP lcd, lcdlat; 
....................    #byte lcd = LCD_DATA_PORT 
....................    #byte lcdlat = LCD_DATA_PORT 
.................... #elif defined(__PCM__) 
....................    LCD_PIN_MAP lcd, lcdlat, lcdtris; 
....................    #byte lcd = LCD_DATA_PORT 
....................    #byte lcdlat = LCD_DATA_PORT 
....................    #byte lcdtris = LCD_DATA_PORT+0x80 
.................... #elif defined(__PCH__) 
....................    LCD_PIN_MAP lcd, lcdlat, lcdtris; 
....................    #byte lcd = LCD_DATA_PORT 
....................    #byte lcdlat = LCD_DATA_PORT+9 
....................    #byte lcdtris = LCD_DATA_PORT+0x12 
.................... #elif defined(__PCD__) 
....................    LCD_PIN_MAP lcd, lcdlat, lcdtris; 
....................    #word lcd = LCD_DATA_PORT 
....................    #word lcdlat = LCD_DATA_PORT+2 
....................    #word lcdtris = LCD_DATA_PORT-0x02 
.................... #endif 
.................... #endif   //LCD_DATA4 not defined 
....................  
.................... #ifndef LCD_TYPE 
....................    #define LCD_TYPE 2           // 0=5x7, 1=5x10, 2=2 lines 
.................... #endif 
....................  
.................... #ifndef LCD_LINE_TWO 
....................    #define LCD_LINE_TWO 0x40    // LCD RAM address for the second line 
.................... #endif 
....................  
.................... #ifndef LCD_LINE_LENGTH 
....................    #define LCD_LINE_LENGTH 20 
.................... #endif 
....................  
.................... unsigned int8 const LCD_INIT_STRING[4] = {0x20 | (LCD_TYPE << 2), 0xc, 1, 6}; 
....................                              // These bytes need to be sent to the LCD 
....................                              // to start it up. 
....................  
.................... unsigned int8 lcd_read_nibble(void); 
....................  
.................... unsigned int8 lcd_read_byte(void) 
.................... { 
....................    unsigned int8 low,high; 
....................  
....................  #if defined(__PCB__) 
....................    set_tris_lcd(LCD_INPUT_MAP); 
....................  #else 
....................   #if (defined(LCD_DATA4) && defined(LCD_DATA5) && defined(LCD_DATA6) && defined(LCD_DATA7)) 
....................    output_float(LCD_DATA4); 
*
015E:  BSF    08.3
....................    output_float(LCD_DATA5); 
015F:  BSF    08.4
....................    output_float(LCD_DATA6); 
0160:  BSF    08.5
....................    output_float(LCD_DATA7); 
0161:  BSF    08.6
....................   #else 
....................    lcdtris.data = 0xF; 
....................   #endif 
....................  #endif 
....................          
....................    lcd_output_rw(1); 
0162:  BCF    03.5
0163:  BSF    08.1
0164:  BSF    03.5
0165:  BCF    08.1
....................    delay_cycles(1); 
0166:  NOP
....................    lcd_output_enable(1); 
0167:  BCF    03.5
0168:  BSF    08.2
0169:  BSF    03.5
016A:  BCF    08.2
....................    delay_cycles(1); 
016B:  NOP
....................    high = lcd_read_nibble(); 
016C:  BCF    03.5
016D:  CALL   125
016E:  MOVF   78,W
016F:  MOVWF  51
....................        
....................    lcd_output_enable(0); 
0170:  BCF    08.2
0171:  BSF    03.5
0172:  BCF    08.2
....................    delay_cycles(1); 
0173:  NOP
....................    lcd_output_enable(1); 
0174:  BCF    03.5
0175:  BSF    08.2
0176:  BSF    03.5
0177:  BCF    08.2
....................    delay_us(1); 
0178:  NOP
....................    low = lcd_read_nibble(); 
0179:  BCF    03.5
017A:  CALL   125
017B:  MOVF   78,W
017C:  MOVWF  50
....................        
....................    lcd_output_enable(0); 
017D:  BCF    08.2
017E:  BSF    03.5
017F:  BCF    08.2
....................  
....................  #if defined(__PCB__) 
....................    set_tris_lcd(LCD_OUTPUT_MAP); 
....................  #else 
....................   #if (defined(LCD_DATA4) && defined(LCD_DATA5) && defined(LCD_DATA6) && defined(LCD_DATA7)) 
....................    output_drive(LCD_DATA4); 
0180:  BCF    08.3
....................    output_drive(LCD_DATA5); 
0181:  BCF    08.4
....................    output_drive(LCD_DATA6); 
0182:  BCF    08.5
....................    output_drive(LCD_DATA7); 
0183:  BCF    08.6
....................   #else 
....................    lcdtris.data = 0x0; 
....................   #endif 
....................  #endif 
....................  
....................    return( (high<<4) | low); 
0184:  BCF    03.5
0185:  SWAPF  51,W
0186:  MOVWF  77
0187:  MOVLW  F0
0188:  ANDWF  77,F
0189:  MOVF   77,W
018A:  IORWF  50,W
018B:  MOVWF  78
.................... } 
....................  
.................... unsigned int8 lcd_read_nibble(void) 
.................... { 
....................   #if (defined(LCD_DATA4) && defined(LCD_DATA5) && defined(LCD_DATA6) && defined(LCD_DATA7)) 
*
0125:  CLRF   52
....................    unsigned int8 n = 0x00; 
....................  
....................    /* Read the data port */ 
....................    n |= input(LCD_DATA4); 
0126:  BSF    03.5
0127:  BSF    08.3
0128:  MOVLW  00
0129:  BCF    03.5
012A:  BTFSC  08.3
012B:  MOVLW  01
012C:  IORWF  52,F
....................    n |= input(LCD_DATA5) << 1; 
012D:  BSF    03.5
012E:  BSF    08.4
012F:  MOVLW  00
0130:  BCF    03.5
0131:  BTFSC  08.4
0132:  MOVLW  01
0133:  MOVWF  77
0134:  BCF    03.0
0135:  RLF    77,F
0136:  MOVF   77,W
0137:  IORWF  52,F
....................    n |= input(LCD_DATA6) << 2; 
0138:  BSF    03.5
0139:  BSF    08.5
013A:  MOVLW  00
013B:  BCF    03.5
013C:  BTFSC  08.5
013D:  MOVLW  01
013E:  MOVWF  77
013F:  RLF    77,F
0140:  RLF    77,F
0141:  MOVLW  FC
0142:  ANDWF  77,F
0143:  MOVF   77,W
0144:  IORWF  52,F
....................    n |= input(LCD_DATA7) << 3; 
0145:  BSF    03.5
0146:  BSF    08.6
0147:  MOVLW  00
0148:  BCF    03.5
0149:  BTFSC  08.6
014A:  MOVLW  01
014B:  MOVWF  77
014C:  RLF    77,F
014D:  RLF    77,F
014E:  RLF    77,F
014F:  MOVLW  F8
0150:  ANDWF  77,F
0151:  MOVF   77,W
0152:  IORWF  52,F
....................     
....................    return(n); 
0153:  MOVF   52,W
0154:  MOVWF  78
....................   #else 
0155:  RETURN
....................    return(lcd.data); 
....................   #endif 
.................... } 
....................  
.................... void lcd_send_nibble(unsigned int8 n) 
.................... { 
....................   #if (defined(LCD_DATA4) && defined(LCD_DATA5) && defined(LCD_DATA6) && defined(LCD_DATA7)) 
....................    /* Write to the data port */ 
....................    output_bit(LCD_DATA4, bit_test(n, 0)); 
*
00FA:  BTFSC  51.0
00FB:  GOTO   0FE
00FC:  BCF    08.3
00FD:  GOTO   0FF
00FE:  BSF    08.3
00FF:  BSF    03.5
0100:  BCF    08.3
....................    output_bit(LCD_DATA5, bit_test(n, 1)); 
0101:  BCF    03.5
0102:  BTFSC  51.1
0103:  GOTO   106
0104:  BCF    08.4
0105:  GOTO   107
0106:  BSF    08.4
0107:  BSF    03.5
0108:  BCF    08.4
....................    output_bit(LCD_DATA6, bit_test(n, 2)); 
0109:  BCF    03.5
010A:  BTFSC  51.2
010B:  GOTO   10E
010C:  BCF    08.5
010D:  GOTO   10F
010E:  BSF    08.5
010F:  BSF    03.5
0110:  BCF    08.5
....................    output_bit(LCD_DATA7, bit_test(n, 3)); 
0111:  BCF    03.5
0112:  BTFSC  51.3
0113:  GOTO   116
0114:  BCF    08.6
0115:  GOTO   117
0116:  BSF    08.6
0117:  BSF    03.5
0118:  BCF    08.6
....................   #else       
....................    lcdlat.data = n; 
....................   #endif 
....................        
....................    delay_cycles(1); 
0119:  NOP
....................    lcd_output_enable(1); 
011A:  BCF    03.5
011B:  BSF    08.2
011C:  BSF    03.5
011D:  BCF    08.2
....................    delay_us(2); 
011E:  GOTO   11F
....................    lcd_output_enable(0); 
011F:  BCF    03.5
0120:  BCF    08.2
0121:  BSF    03.5
0122:  BCF    08.2
0123:  BCF    03.5
0124:  RETURN
.................... } 
....................  
.................... void lcd_send_byte(unsigned int8 address, unsigned int8 n) 
.................... { 
....................   #if defined(__PCB__) 
....................    set_tris_lcd(LCD_OUTPUT_MAP); 
....................   #else 
....................    lcd_enable_tris(); 
*
0156:  BSF    03.5
0157:  BCF    08.2
....................    lcd_rs_tris(); 
0158:  BCF    08.0
....................    lcd_rw_tris(); 
0159:  BCF    08.1
....................   #endif 
....................  
....................    lcd_output_rs(0); 
015A:  BCF    03.5
015B:  BCF    08.0
015C:  BSF    03.5
015D:  BCF    08.0
....................    while ( bit_test(lcd_read_byte(),7) ) ; 
*
018C:  MOVF   78,W
018D:  MOVWF  50
018E:  BTFSS  50.7
018F:  GOTO   192
0190:  BSF    03.5
0191:  GOTO   15E
....................    lcd_output_rs(address); 
0192:  MOVF   4E,F
0193:  BTFSS  03.2
0194:  GOTO   197
0195:  BCF    08.0
0196:  GOTO   198
0197:  BSF    08.0
0198:  BSF    03.5
0199:  BCF    08.0
....................    delay_cycles(1); 
019A:  NOP
....................    lcd_output_rw(0); 
019B:  BCF    03.5
019C:  BCF    08.1
019D:  BSF    03.5
019E:  BCF    08.1
....................    delay_cycles(1); 
019F:  NOP
....................    lcd_output_enable(0); 
01A0:  BCF    03.5
01A1:  BCF    08.2
01A2:  BSF    03.5
01A3:  BCF    08.2
....................    lcd_send_nibble(n >> 4); 
01A4:  BCF    03.5
01A5:  SWAPF  4F,W
01A6:  MOVWF  50
01A7:  MOVLW  0F
01A8:  ANDWF  50,F
01A9:  MOVF   50,W
01AA:  MOVWF  51
01AB:  CALL   0FA
....................    lcd_send_nibble(n & 0xf); 
01AC:  MOVF   4F,W
01AD:  ANDLW  0F
01AE:  MOVWF  50
01AF:  MOVWF  51
01B0:  CALL   0FA
01B1:  RETURN
.................... } 
....................  
.................... #if defined(LCD_EXTENDED_NEWLINE) 
.................... unsigned int8 g_LcdX, g_LcdY; 
.................... #endif 
....................  
.................... void lcd_init(void)  
.................... { 
....................    unsigned int8 i; 
....................  
....................  #if defined(__PCB__) 
....................    set_tris_lcd(LCD_OUTPUT_MAP); 
....................  #else 
....................   #if (defined(LCD_DATA4) && defined(LCD_DATA5) && defined(LCD_DATA6) && defined(LCD_DATA7)) 
....................    output_drive(LCD_DATA4); 
01B2:  BSF    03.5
01B3:  BCF    08.3
....................    output_drive(LCD_DATA5); 
01B4:  BCF    08.4
....................    output_drive(LCD_DATA6); 
01B5:  BCF    08.5
....................    output_drive(LCD_DATA7); 
01B6:  BCF    08.6
....................   #else 
....................    lcdtris.data = 0x0; 
....................   #endif 
....................    lcd_enable_tris(); 
01B7:  BCF    08.2
....................    lcd_rs_tris(); 
01B8:  BCF    08.0
....................    lcd_rw_tris(); 
01B9:  BCF    08.1
....................  #endif 
....................  
....................    lcd_output_rs(0); 
01BA:  BCF    03.5
01BB:  BCF    08.0
01BC:  BSF    03.5
01BD:  BCF    08.0
....................    lcd_output_rw(0); 
01BE:  BCF    03.5
01BF:  BCF    08.1
01C0:  BSF    03.5
01C1:  BCF    08.1
....................    lcd_output_enable(0); 
01C2:  BCF    03.5
01C3:  BCF    08.2
01C4:  BSF    03.5
01C5:  BCF    08.2
....................      
....................    delay_ms(15); 
01C6:  MOVLW  0F
01C7:  BCF    03.5
01C8:  MOVWF  4A
01C9:  CALL   0E5
....................    for(i=1;i<=3;++i) 
01CA:  MOVLW  01
01CB:  MOVWF  3C
01CC:  MOVF   3C,W
01CD:  SUBLW  03
01CE:  BTFSS  03.0
01CF:  GOTO   1D8
....................    { 
....................        lcd_send_nibble(3); 
01D0:  MOVLW  03
01D1:  MOVWF  51
01D2:  CALL   0FA
....................        delay_ms(5); 
01D3:  MOVLW  05
01D4:  MOVWF  4A
01D5:  CALL   0E5
01D6:  INCF   3C,F
01D7:  GOTO   1CC
....................    } 
....................     
....................    lcd_send_nibble(2); 
01D8:  MOVLW  02
01D9:  MOVWF  51
01DA:  CALL   0FA
....................    delay_ms(5); 
01DB:  MOVLW  05
01DC:  MOVWF  4A
01DD:  CALL   0E5
....................    for(i=0;i<=3;++i) 
01DE:  CLRF   3C
01DF:  MOVF   3C,W
01E0:  SUBLW  03
01E1:  BTFSS  03.0
01E2:  GOTO   1EC
....................       lcd_send_byte(0,LCD_INIT_STRING[i]); 
01E3:  MOVF   3C,W
01E4:  CALL   004
01E5:  MOVWF  3D
01E6:  CLRF   4E
01E7:  MOVF   3D,W
01E8:  MOVWF  4F
01E9:  CALL   156
....................  
....................   #if defined(LCD_EXTENDED_NEWLINE) 
01EA:  INCF   3C,F
01EB:  GOTO   1DF
01EC:  RETURN
....................    g_LcdX = 0; 
....................    g_LcdY = 0; 
....................   #endif 
.................... } 
....................  
.................... void lcd_gotoxy(unsigned int8 x, unsigned int8 y) 
.................... { 
....................    unsigned int8 address; 
....................     
....................    if(y!=1) 
*
0389:  DECFSZ 4B,W
038A:  GOTO   38C
038B:  GOTO   38F
....................       address=LCD_LINE_TWO; 
038C:  MOVLW  40
038D:  MOVWF  4C
038E:  GOTO   390
....................    else 
....................       address=0; 
038F:  CLRF   4C
....................       
....................    address+=x-1; 
0390:  MOVLW  01
0391:  SUBWF  4A,W
0392:  ADDWF  4C,F
....................    lcd_send_byte(0,0x80|address); 
0393:  MOVF   4C,W
0394:  IORLW  80
0395:  MOVWF  4D
0396:  CLRF   4E
0397:  MOVF   4D,W
0398:  MOVWF  4F
0399:  CALL   156
....................  
....................   #if defined(LCD_EXTENDED_NEWLINE) 
039A:  RETURN
....................    g_LcdX = x - 1; 
....................    g_LcdY = y - 1; 
....................   #endif 
.................... } 
....................  
.................... void lcd_putc(char c) 
.................... { 
....................    switch (c) 
039B:  MOVF   49,W
039C:  XORLW  07
039D:  BTFSC  03.2
039E:  GOTO   3A9
039F:  XORLW  0B
03A0:  BTFSC  03.2
03A1:  GOTO   3AE
03A2:  XORLW  06
03A3:  BTFSC  03.2
03A4:  GOTO   3B6
03A5:  XORLW  02
03A6:  BTFSC  03.2
03A7:  GOTO   3BC
03A8:  GOTO   3C1
....................    { 
....................       case '\a'   :  lcd_gotoxy(1,1);     break; 
03A9:  MOVLW  01
03AA:  MOVWF  4A
03AB:  MOVWF  4B
03AC:  CALL   389
03AD:  GOTO   3C6
....................  
....................       case '\f'   :  lcd_send_byte(0,1); 
03AE:  CLRF   4E
03AF:  MOVLW  01
03B0:  MOVWF  4F
03B1:  CALL   156
....................                      delay_ms(2); 
03B2:  MOVLW  02
03B3:  MOVWF  4A
03B4:  CALL   0E5
....................                     #if defined(LCD_EXTENDED_NEWLINE) 
....................                      g_LcdX = 0; 
....................                      g_LcdY = 0; 
....................                     #endif 
....................                      break; 
03B5:  GOTO   3C6
....................  
....................      #if defined(LCD_EXTENDED_NEWLINE) 
....................       case '\r'   :  lcd_gotoxy(1, g_LcdY+1);   break; 
....................       case '\n'   : 
....................          while (g_LcdX++ < LCD_LINE_LENGTH) 
....................          { 
....................             lcd_send_byte(1, ' '); 
....................          } 
....................          lcd_gotoxy(1, g_LcdY+2); 
....................          break; 
....................      #else 
....................       case '\n'   : lcd_gotoxy(1,2);        break; 
03B6:  MOVLW  01
03B7:  MOVWF  4A
03B8:  MOVLW  02
03B9:  MOVWF  4B
03BA:  CALL   389
03BB:  GOTO   3C6
....................      #endif 
....................       
....................       case '\b'   : lcd_send_byte(0,0x10);  break; 
03BC:  CLRF   4E
03BD:  MOVLW  10
03BE:  MOVWF  4F
03BF:  CALL   156
03C0:  GOTO   3C6
....................       
....................      #if defined(LCD_EXTENDED_NEWLINE) 
....................       default     :  
....................          if (g_LcdX < LCD_LINE_LENGTH) 
....................          { 
....................             lcd_send_byte(1, c); 
....................             g_LcdX++; 
....................          } 
....................          break; 
....................      #else 
....................       default     : lcd_send_byte(1,c);     break; 
03C1:  MOVLW  01
03C2:  MOVWF  4E
03C3:  MOVF   49,W
03C4:  MOVWF  4F
03C5:  CALL   156
....................      #endif 
....................    } 
03C6:  RETURN
.................... } 
....................   
.................... char lcd_getc(unsigned int8 x, unsigned int8 y) 
.................... { 
....................    char value; 
....................  
....................    lcd_gotoxy(x,y); 
....................    while ( bit_test(lcd_read_byte(),7) ); // wait until busy flag is low 
....................    lcd_output_rs(1); 
....................    value = lcd_read_byte(); 
....................    lcd_output_rs(0); 
....................     
....................    return(value); 
.................... } 
....................  
.................... // write a custom character to the ram 
.................... // which is 0-7 and specifies which character array we are modifying. 
.................... // ptr points to an array of 8 bytes, where each byte is the next row of 
.................... //    pixels.  only bits 0-4 are used.  the last row is the cursor row, and 
.................... //    usually you will want to leave this byte 0x00. 
.................... void lcd_set_cgram_char(unsigned int8 which, unsigned int8 *ptr) 
.................... { 
....................    unsigned int i; 
....................  
....................    which <<= 3; 
....................    which &= 0x38; 
....................  
....................    lcd_send_byte(0, 0x40 | which);  //set cgram address 
....................  
....................    for(i=0; i<8; i++) 
....................    { 
....................       lcd_send_byte(1, *ptr++); 
....................    } 
....................    
....................    #if defined(LCD_EXTENDED_NEWLINE) 
....................     lcd_gotoxy(g_LcdX+1, g_LcdY+1);  //set ddram address 
....................    #endif 
.................... } 
....................  
.................... void lcd_cursor_on(int1 on) 
.................... { 
....................    if (on) 
....................    { 
....................       lcd_send_byte(0,0x0F);           //turn LCD cursor ON 
....................    } 
....................    else 
....................    { 
....................       lcd_send_byte(0,0x0C);           //turn LCD cursor OFF 
....................    } 
.................... } 
....................  
.................... #endif 
....................  
.................... #include <DS1302.c>  
.................... ////////////////////////////////////////////////////////////////////////// 
.................... ////                               DS1302.C                           //// 
.................... ////                     Driver for Real Time Clock                   //// 
.................... ////                                                                  //// 
.................... ////  rtc_init()                                   Call after power up//// 
.................... ////                                                                  //// 
.................... ////  rtc_set_datetime(day,mth,year,dow,hour,min)  Set the date/time  //// 
.................... ////                                                                  //// 
.................... ////  rtc_get_date(day,mth,year,dow)               Get the date       //// 
.................... ////                                                                  //// 
.................... ////  rtc_get_time(hr,min,sec)                     Get the time       //// 
.................... ////                                                                  //// 
.................... ////  rtc_write_nvr(address,data)                  Write to NVR       //// 
.................... ////                                                                  //// 
.................... ////  data = rtc_read_nvr(address)                 Read from NVR      //// 
.................... ////                                                                  //// 
.................... ////  get_bcd(data)                              Convert data to BCD  //// 
.................... ////                                                                  //// 
.................... ////  rm_bcd(data)                               Convert data to int  //// 
.................... ////                                                                  //// 
.................... ////////////////////////////////////////////////////////////////////////// 
.................... ////        (C) Copyright 1996,2003 Custom Computer Services          //// 
.................... //// This source code may only be used by licensed users of the CCS C //// 
.................... //// compiler.  This source code may only be distributed to other     //// 
.................... //// licensed users of the CCS C compiler.  No other use, reproduction//// 
.................... //// or distribution is permitted without written permission.         //// 
.................... //// Derivative programs created using this software in object code   //// 
.................... //// form are not restricted in any way.                              //// 
.................... ////////////////////////////////////////////////////////////////////////// 
....................  
.................... #ifndef RTC_SCLK 
....................  
.................... #define RTC_SCLK PIN_B1 
.................... #define RTC_IO   PIN_B3 
.................... #define RTC_RST  PIN_B2 
....................  
.................... #endif 
....................  
.................... void write_ds1302_byte(BYTE cmd) { 
....................    BYTE i; 
....................  
....................    for(i=0;i<=7;++i) { 
*
01ED:  CLRF   47
01EE:  MOVF   47,W
01EF:  SUBLW  07
01F0:  BTFSS  03.0
01F1:  GOTO   204
....................       output_bit(RTC_IO, shift_right(&cmd,1,0) ); 
01F2:  BCF    03.0
01F3:  RRF    46,F
01F4:  BTFSC  03.0
01F5:  GOTO   1F8
01F6:  BCF    06.3
01F7:  GOTO   1F9
01F8:  BSF    06.3
01F9:  BSF    03.5
01FA:  BCF    06.3
....................       output_high(RTC_SCLK); 
01FB:  BCF    06.1
01FC:  BCF    03.5
01FD:  BSF    06.1
....................       output_low(RTC_SCLK); 
01FE:  BSF    03.5
01FF:  BCF    06.1
0200:  BCF    03.5
0201:  BCF    06.1
0202:  INCF   47,F
0203:  GOTO   1EE
....................    } 
0204:  RETURN
.................... } 
....................  
.................... void write_ds1302(BYTE cmd, BYTE data) { 
....................  
....................    output_high(RTC_RST); 
0205:  BSF    03.5
0206:  BCF    06.2
0207:  BCF    03.5
0208:  BSF    06.2
....................    write_ds1302_byte(cmd); 
0209:  MOVF   44,W
020A:  MOVWF  46
020B:  CALL   1ED
....................    write_ds1302_byte(data); 
020C:  MOVF   45,W
020D:  MOVWF  46
020E:  CALL   1ED
....................    output_low(RTC_RST); 
020F:  BSF    03.5
0210:  BCF    06.2
0211:  BCF    03.5
0212:  BCF    06.2
0213:  RETURN
.................... } 
....................  
.................... BYTE read_ds1302(BYTE cmd) { 
....................    BYTE i,data; 
....................  
....................    output_high(RTC_RST); 
0214:  BSF    03.5
0215:  BCF    06.2
0216:  BCF    03.5
0217:  BSF    06.2
....................    write_ds1302_byte(cmd); 
0218:  MOVF   40,W
0219:  MOVWF  46
021A:  CALL   1ED
....................     
....................    input(RTC_IO); 
021B:  BSF    03.5
021C:  BSF    06.3
....................    delay_us(1); 
021D:  NOP
....................           
....................    for(i=0;i<=7;++i) { 
021E:  BCF    03.5
021F:  CLRF   41
0220:  MOVF   41,W
0221:  SUBLW  07
0222:  BTFSS  03.0
0223:  GOTO   239
....................       shift_right(&data,1,input(RTC_IO)); 
0224:  BSF    03.5
0225:  BSF    06.3
0226:  BCF    03.5
0227:  BTFSC  06.3
0228:  GOTO   22B
0229:  BCF    03.0
022A:  GOTO   22C
022B:  BSF    03.0
022C:  RRF    42,F
....................       output_high(RTC_SCLK); 
022D:  BSF    03.5
022E:  BCF    06.1
022F:  BCF    03.5
0230:  BSF    06.1
....................       delay_us(2); 
0231:  GOTO   232
....................       output_low(RTC_SCLK); 
0232:  BSF    03.5
0233:  BCF    06.1
0234:  BCF    03.5
0235:  BCF    06.1
....................       delay_us(2); 
0236:  GOTO   237
0237:  INCF   41,F
0238:  GOTO   220
....................    } 
....................    output_low(RTC_RST); 
0239:  BSF    03.5
023A:  BCF    06.2
023B:  BCF    03.5
023C:  BCF    06.2
....................  
....................    return(data); 
023D:  MOVF   42,W
023E:  MOVWF  78
023F:  RETURN
.................... } 
....................  
.................... void rtc_init() { 
....................    BYTE x; 
....................    output_low(RTC_RST); 
0240:  BSF    03.5
0241:  BCF    06.2
0242:  BCF    03.5
0243:  BCF    06.2
....................    delay_us(2); 
0244:  GOTO   245
....................    output_low(RTC_SCLK); 
0245:  BSF    03.5
0246:  BCF    06.1
0247:  BCF    03.5
0248:  BCF    06.1
....................    write_ds1302(0x8e,0); 
0249:  MOVLW  8E
024A:  MOVWF  44
024B:  CLRF   45
024C:  CALL   205
....................    write_ds1302(0x90,0xa4); 
024D:  MOVLW  90
024E:  MOVWF  44
024F:  MOVLW  A4
0250:  MOVWF  45
0251:  CALL   205
....................    x=read_ds1302(0x81); 
0252:  MOVLW  81
0253:  MOVWF  40
0254:  CALL   214
0255:  MOVF   78,W
0256:  MOVWF  3C
....................    if((x & 0x80)!=0) 
0257:  MOVF   3C,W
0258:  ANDLW  80
0259:  BTFSC  03.2
025A:  GOTO   25F
....................      write_ds1302(0x80,0); 
025B:  MOVLW  80
025C:  MOVWF  44
025D:  CLRF   45
025E:  CALL   205
025F:  BSF    0A.3
0260:  BCF    0A.4
0261:  GOTO   4B1 (RETURN)
.................... } 
....................  
.................... byte get_bcd(BYTE data) 
.................... { 
....................    byte nibh; 
....................    byte nibl; 
....................  
....................    nibh=data/10; 
*
029C:  MOVF   43,W
029D:  MOVWF  46
029E:  MOVLW  0A
029F:  MOVWF  47
02A0:  CALL   262
02A1:  MOVF   78,W
02A2:  MOVWF  44
....................    nibl=data-(nibh*10); 
02A3:  MOVF   44,W
02A4:  MOVWF  46
02A5:  MOVLW  0A
02A6:  MOVWF  47
02A7:  CALL   277
02A8:  MOVF   78,W
02A9:  SUBWF  43,W
02AA:  MOVWF  45
....................  
....................    return((nibh<<4)|nibl); 
02AB:  SWAPF  44,W
02AC:  MOVWF  77
02AD:  MOVLW  F0
02AE:  ANDWF  77,F
02AF:  MOVF   77,W
02B0:  IORWF  45,W
02B1:  MOVWF  78
02B2:  RETURN
.................... } 
....................  
.................... byte rm_bcd(BYTE data) 
.................... { 
....................    byte i; 
....................  
....................    i=data; 
*
036E:  MOVF   41,W
036F:  MOVWF  42
....................    data=(i>>4)*10; 
0370:  SWAPF  42,W
0371:  MOVWF  77
0372:  MOVLW  0F
0373:  ANDWF  77,F
0374:  MOVF   77,W
0375:  MOVWF  44
0376:  MOVWF  46
0377:  MOVLW  0A
0378:  MOVWF  47
0379:  CALL   277
037A:  MOVF   78,W
037B:  MOVWF  41
....................    data=data+(i<<4>>4); 
037C:  SWAPF  42,W
037D:  MOVWF  77
037E:  MOVLW  F0
037F:  ANDWF  77,F
0380:  MOVF   77,W
0381:  SWAPF  77,F
0382:  MOVLW  0F
0383:  ANDWF  77,F
0384:  MOVF   77,W
0385:  ADDWF  41,F
....................  
....................    return data; 
0386:  MOVF   41,W
0387:  MOVWF  78
0388:  RETURN
.................... } 
....................  
.................... void rtc_set_datetime(BYTE day, BYTE mth, BYTE year, BYTE dow, BYTE hr, BYTE min) { 
....................  
....................    write_ds1302(0x86,get_bcd(day)); 
*
02B3:  MOVF   3D,W
02B4:  MOVWF  43
02B5:  CALL   29C
02B6:  MOVF   78,W
02B7:  MOVWF  43
02B8:  MOVLW  86
02B9:  MOVWF  44
02BA:  MOVF   78,W
02BB:  MOVWF  45
02BC:  CALL   205
....................    write_ds1302(0x88,get_bcd(mth)); 
02BD:  MOVF   3E,W
02BE:  MOVWF  43
02BF:  CALL   29C
02C0:  MOVF   78,W
02C1:  MOVWF  43
02C2:  MOVLW  88
02C3:  MOVWF  44
02C4:  MOVF   78,W
02C5:  MOVWF  45
02C6:  CALL   205
....................    write_ds1302(0x8c,get_bcd(year)); 
02C7:  MOVF   3F,W
02C8:  MOVWF  43
02C9:  CALL   29C
02CA:  MOVF   78,W
02CB:  MOVWF  43
02CC:  MOVLW  8C
02CD:  MOVWF  44
02CE:  MOVF   78,W
02CF:  MOVWF  45
02D0:  CALL   205
....................    write_ds1302(0x8a,get_bcd(dow)); 
02D1:  MOVF   40,W
02D2:  MOVWF  43
02D3:  CALL   29C
02D4:  MOVF   78,W
02D5:  MOVWF  43
02D6:  MOVLW  8A
02D7:  MOVWF  44
02D8:  MOVF   78,W
02D9:  MOVWF  45
02DA:  CALL   205
....................    write_ds1302(0x84,get_bcd(hr)); 
02DB:  MOVF   41,W
02DC:  MOVWF  43
02DD:  CALL   29C
02DE:  MOVF   78,W
02DF:  MOVWF  43
02E0:  MOVLW  84
02E1:  MOVWF  44
02E2:  MOVF   78,W
02E3:  MOVWF  45
02E4:  CALL   205
....................    write_ds1302(0x82,get_bcd(min)); 
02E5:  MOVF   42,W
02E6:  MOVWF  43
02E7:  CALL   29C
02E8:  MOVF   78,W
02E9:  MOVWF  43
02EA:  MOVLW  82
02EB:  MOVWF  44
02EC:  MOVF   78,W
02ED:  MOVWF  45
02EE:  CALL   205
....................    write_ds1302(0x80,get_bcd(0)); 
02EF:  CLRF   43
02F0:  CALL   29C
02F1:  MOVF   78,W
02F2:  MOVWF  43
02F3:  MOVLW  80
02F4:  MOVWF  44
02F5:  MOVF   78,W
02F6:  MOVWF  45
02F7:  CALL   205
02F8:  RETURN
.................... } 
....................  
.................... void rtc_get_date(BYTE& day, BYTE& mth, BYTE& year, BYTE& dow) { 
....................    day = rm_bcd(read_ds1302(0x87)); 
*
062B:  MOVLW  87
062C:  MOVWF  40
062D:  CALL   214
062E:  MOVF   78,W
062F:  MOVWF  3C
0630:  MOVWF  41
0631:  CALL   36E
0632:  MOVF   78,W
0633:  MOVWF  2B
....................    mth = rm_bcd(read_ds1302(0x89)); 
0634:  MOVLW  89
0635:  MOVWF  40
0636:  CALL   214
0637:  MOVF   78,W
0638:  MOVWF  3C
0639:  MOVWF  41
063A:  CALL   36E
063B:  MOVF   78,W
063C:  MOVWF  2C
....................    year = rm_bcd(read_ds1302(0x8d)); 
063D:  MOVLW  8D
063E:  MOVWF  40
063F:  CALL   214
0640:  MOVF   78,W
0641:  MOVWF  3C
0642:  MOVWF  41
0643:  CALL   36E
0644:  MOVF   78,W
0645:  MOVWF  2D
....................    dow = rm_bcd(read_ds1302(0x8b)); 
0646:  MOVLW  8B
0647:  MOVWF  40
0648:  CALL   214
0649:  MOVF   78,W
064A:  MOVWF  3C
064B:  MOVWF  41
064C:  CALL   36E
064D:  MOVF   78,W
064E:  MOVWF  2E
.................... } 
....................  
.................... void rtc_get_time(BYTE& hr, BYTE& min, BYTE& sec) { 
....................    hr = rm_bcd(read_ds1302(0x85)); 
*
0610:  MOVLW  85
0611:  MOVWF  40
0612:  CALL   214
0613:  MOVF   78,W
0614:  MOVWF  3C
0615:  MOVWF  41
0616:  CALL   36E
0617:  MOVF   78,W
0618:  MOVWF  2F
....................    min = rm_bcd(read_ds1302(0x83)); 
0619:  MOVLW  83
061A:  MOVWF  40
061B:  CALL   214
061C:  MOVF   78,W
061D:  MOVWF  3C
061E:  MOVWF  41
061F:  CALL   36E
0620:  MOVF   78,W
0621:  MOVWF  31
....................    sec = rm_bcd(read_ds1302(0x81)); 
0622:  MOVLW  81
0623:  MOVWF  40
0624:  CALL   214
0625:  MOVF   78,W
0626:  MOVWF  3C
0627:  MOVWF  41
0628:  CALL   36E
0629:  MOVF   78,W
062A:  MOVWF  30
.................... } 
....................  
.................... void rtc_write_nvr(BYTE address, BYTE data) { 
....................    write_ds1302(address|0xc0,data); 
.................... } 
....................  
.................... BYTE rtc_read_nvr(BYTE address) { 
....................     return(read_ds1302(address|0xc1)); 
.................... } 
....................  
....................  
.................... int i; 
.................... int gun=0; 
.................... int ay=0; 
.................... int yil=0; 
.................... int haftanin_gunu=0; 
.................... int saat=0; 
.................... int saniye; 
.................... int dakika=0; 
.................... int mode; 
.................... int saata=0; 
.................... int dakikaa=0; 
.................... int ygun, yay, yyil, yh_g, ys, yd; 
....................  
....................  
.................... void set_date(); 
.................... void set_alarm(); 
.................... void set_clock(); 
.................... float get_temp(); 
.................... //void check_alarm(int s, int sa, int d, int da); 
.................... void check_alarm(); 
....................  
....................  
....................  
....................  
....................  
....................  
.................... void display(){ 
....................    while(!input(menu)) 
*
059A:  BSF    3B.0
059B:  MOVF   3B,W
059C:  BSF    03.5
059D:  MOVWF  07
059E:  BCF    03.5
059F:  BTFSC  07.0
05A0:  GOTO   73A
....................    {   
....................       T=get_temp(); 
*
0608:  MOVF   7A,W
0609:  MOVWF  29
060A:  MOVF   79,W
060B:  MOVWF  28
060C:  MOVF   78,W
060D:  MOVWF  27
060E:  MOVF   77,W
060F:  MOVWF  26
....................       rtc_get_time(saat,dakika,saniye);       
....................       rtc_get_date(gun,ay,yil,haftanin_gunu);  
....................       printf(lcd_putc,"\f%02d/%02d/20%02d ",gun,ay,yil); 
*
064F:  MOVLW  0C
0650:  MOVWF  49
0651:  CALL   39B
0652:  MOVF   2B,W
0653:  MOVWF  3C
0654:  MOVLW  01
0655:  MOVWF  3D
0656:  CALL   3C7
0657:  MOVLW  2F
0658:  MOVWF  49
0659:  CALL   39B
065A:  MOVF   2C,W
065B:  MOVWF  3C
065C:  MOVLW  01
065D:  MOVWF  3D
065E:  CALL   3C7
065F:  MOVLW  2F
0660:  MOVWF  49
0661:  CALL   39B
0662:  MOVLW  32
0663:  MOVWF  49
0664:  CALL   39B
0665:  MOVLW  30
0666:  MOVWF  49
0667:  CALL   39B
0668:  MOVF   2D,W
0669:  MOVWF  3C
066A:  MOVLW  01
066B:  MOVWF  3D
066C:  CALL   3C7
066D:  MOVLW  20
066E:  MOVWF  49
066F:  CALL   39B
....................        
....................       switch(haftanin_gunu)   
0670:  MOVLW  01
0671:  SUBWF  2E,W
0672:  ADDLW  F9
0673:  BTFSC  03.0
0674:  GOTO   6BC
0675:  ADDLW  07
0676:  GOTO   73D
....................       {                       
....................          case 1: printf(lcd_putc,"PAZ"); break;  
0677:  MOVLW  50
0678:  MOVWF  49
0679:  CALL   39B
067A:  MOVLW  41
067B:  MOVWF  49
067C:  CALL   39B
067D:  MOVLW  5A
067E:  MOVWF  49
067F:  CALL   39B
0680:  GOTO   6BC
....................          case 2: printf(lcd_putc,"PZT"); break;  
0681:  MOVLW  50
0682:  MOVWF  49
0683:  CALL   39B
0684:  MOVLW  5A
0685:  MOVWF  49
0686:  CALL   39B
0687:  MOVLW  54
0688:  MOVWF  49
0689:  CALL   39B
068A:  GOTO   6BC
....................          case 3: printf(lcd_putc,"SAL"); break;  
068B:  MOVLW  53
068C:  MOVWF  49
068D:  CALL   39B
068E:  MOVLW  41
068F:  MOVWF  49
0690:  CALL   39B
0691:  MOVLW  4C
0692:  MOVWF  49
0693:  CALL   39B
0694:  GOTO   6BC
....................          case 4: printf(lcd_putc,"CRS"); break;  
0695:  MOVLW  43
0696:  MOVWF  49
0697:  CALL   39B
0698:  MOVLW  52
0699:  MOVWF  49
069A:  CALL   39B
069B:  MOVLW  53
069C:  MOVWF  49
069D:  CALL   39B
069E:  GOTO   6BC
....................          case 5: printf(lcd_putc,"PER"); break;  
069F:  MOVLW  50
06A0:  MOVWF  49
06A1:  CALL   39B
06A2:  MOVLW  45
06A3:  MOVWF  49
06A4:  CALL   39B
06A5:  MOVLW  52
06A6:  MOVWF  49
06A7:  CALL   39B
06A8:  GOTO   6BC
....................          case 6: printf(lcd_putc,"CUM"); break;  
06A9:  MOVLW  43
06AA:  MOVWF  49
06AB:  CALL   39B
06AC:  MOVLW  55
06AD:  MOVWF  49
06AE:  CALL   39B
06AF:  MOVLW  4D
06B0:  MOVWF  49
06B1:  CALL   39B
06B2:  GOTO   6BC
....................          case 7: printf(lcd_putc,"CTS"); break;  
06B3:  MOVLW  43
06B4:  MOVWF  49
06B5:  CALL   39B
06B6:  MOVLW  54
06B7:  MOVWF  49
06B8:  CALL   39B
06B9:  MOVLW  53
06BA:  MOVWF  49
06BB:  CALL   39B
....................       } 
....................       printf(lcd_putc,"\n%02d:%02d:%02d %3.1f'C",saat,dakika,saniye,(float)T); 
06BC:  MOVLW  0A
06BD:  MOVWF  49
06BE:  CALL   39B
06BF:  MOVF   2F,W
06C0:  MOVWF  3C
06C1:  MOVLW  01
06C2:  MOVWF  3D
06C3:  CALL   3C7
06C4:  MOVLW  3A
06C5:  MOVWF  49
06C6:  CALL   39B
06C7:  MOVF   31,W
06C8:  MOVWF  3C
06C9:  MOVLW  01
06CA:  MOVWF  3D
06CB:  CALL   3C7
06CC:  MOVLW  3A
06CD:  MOVWF  49
06CE:  CALL   39B
06CF:  MOVF   30,W
06D0:  MOVWF  3C
06D1:  MOVLW  01
06D2:  MOVWF  3D
06D3:  CALL   3C7
06D4:  MOVLW  20
06D5:  MOVWF  49
06D6:  CALL   39B
06D7:  MOVLW  02
06D8:  MOVWF  04
06D9:  MOVF   29,W
06DA:  MOVWF  3F
06DB:  MOVF   28,W
06DC:  MOVWF  3E
06DD:  MOVF   27,W
06DE:  MOVWF  3D
06DF:  MOVF   26,W
06E0:  MOVWF  3C
06E1:  MOVLW  01
06E2:  MOVWF  40
06E3:  GOTO   46D
06E4:  MOVLW  27
06E5:  MOVWF  49
06E6:  CALL   39B
06E7:  MOVLW  43
06E8:  MOVWF  49
06E9:  CALL   39B
....................       delay_ms(150); 
06EA:  MOVLW  96
06EB:  MOVWF  4A
06EC:  CALL   0E5
....................       check_alarm(); 
*
0739:  GOTO   59A
....................    } 
073A:  BSF    0A.3
073B:  BCF    0A.4
073C:  GOTO   4C3 (RETURN)
.................... } 
....................  
.................... void set_clock(){ 
....................    saat=0; 
*
0800:  CLRF   2F
....................    dakika=0; 
0801:  CLRF   31
....................    printf(lcd_putc,"\f  Saat Ayari      "); 
0802:  MOVLW  0C
0803:  BSF    03.6
0804:  MOVWF  0D
0805:  MOVLW  00
0806:  MOVWF  0F
0807:  BCF    0A.3
0808:  BCF    03.6
0809:  CALL   54F
080A:  BSF    0A.3
....................     
....................    s:  
....................     
....................    lcd_gotoxy(1,2); 
080B:  MOVLW  01
080C:  MOVWF  4A
080D:  MOVLW  02
080E:  MOVWF  4B
080F:  BCF    0A.3
0810:  CALL   389
0811:  BSF    0A.3
....................    printf(lcd_putc,"Saat : %2d      ", saat); 
0812:  MOVLW  16
0813:  BSF    03.6
0814:  MOVWF  0D
0815:  MOVLW  00
0816:  MOVWF  0F
0817:  BCF    03.0
0818:  MOVLW  07
0819:  BCF    03.6
081A:  MOVWF  3C
081B:  BCF    0A.3
081C:  CALL   748
081D:  BSF    0A.3
081E:  MOVF   2F,W
081F:  MOVWF  3C
0820:  MOVLW  11
0821:  MOVWF  3D
0822:  BCF    0A.3
0823:  CALL   79C
0824:  BSF    0A.3
0825:  MOVLW  1B
0826:  BSF    03.6
0827:  MOVWF  0D
0828:  MOVLW  00
0829:  MOVWF  0F
082A:  BCF    03.0
082B:  MOVLW  06
082C:  BCF    03.6
082D:  MOVWF  3C
082E:  BCF    0A.3
082F:  CALL   748
0830:  BSF    0A.3
....................    mode = 0; 
0831:  CLRF   32
....................    while(1){ 
....................       while(mode==0){ 
0832:  MOVF   32,F
0833:  BTFSS  03.2
0834:  GOTO   088
....................          while(input(select)){ 
0835:  BSF    3B.1
0836:  MOVF   3B,W
0837:  BSF    03.5
0838:  MOVWF  07
0839:  BCF    03.5
083A:  BTFSS  07.1
083B:  GOTO   065
....................             saat++; 
083C:  INCF   2F,F
....................             if(saat>23) saat=0; 
083D:  MOVF   2F,W
083E:  SUBLW  17
083F:  BTFSS  03.0
0840:  CLRF   2F
....................             lcd_gotoxy(8,2); 
0841:  MOVLW  08
0842:  MOVWF  4A
0843:  MOVLW  02
0844:  MOVWF  4B
0845:  BCF    0A.3
0846:  CALL   389
0847:  BSF    0A.3
....................             printf(lcd_putc,"%2d        ", saat); 
0848:  MOVF   2F,W
0849:  MOVWF  3C
084A:  MOVLW  11
084B:  MOVWF  3D
084C:  BCF    0A.3
084D:  CALL   79C
084E:  BSF    0A.3
084F:  MOVLW  20
0850:  BSF    03.6
0851:  MOVWF  0D
0852:  MOVLW  00
0853:  MOVWF  0F
0854:  BSF    03.0
0855:  MOVLW  08
0856:  BCF    03.6
0857:  MOVWF  3C
0858:  BCF    0A.3
0859:  CALL   748
085A:  BSF    0A.3
....................             delay_ms(300); 
085B:  MOVLW  02
085C:  MOVWF  3C
085D:  MOVLW  96
085E:  MOVWF  4A
085F:  BCF    0A.3
0860:  CALL   0E5
0861:  BSF    0A.3
0862:  DECFSZ 3C,F
0863:  GOTO   05D
0864:  GOTO   035
....................                
....................          } 
....................          ys=saat; 
0865:  MOVF   2F,W
0866:  MOVWF  39
....................          if(input(menu)){ 
0867:  BSF    3B.0
0868:  MOVF   3B,W
0869:  BSF    03.5
086A:  MOVWF  07
086B:  BCF    03.5
086C:  BTFSS  07.0
086D:  GOTO   078
....................             while(input(menu)); 
086E:  BSF    3B.0
086F:  MOVF   3B,W
0870:  BSF    03.5
0871:  MOVWF  07
0872:  BCF    03.5
0873:  BTFSC  07.0
0874:  GOTO   06E
....................             mode=1; 
0875:  MOVLW  01
0876:  MOVWF  32
....................             goto d; 
0877:  GOTO   088
....................          } 
....................           
....................          if(input(done)){ 
0878:  BSF    3B.2
0879:  MOVF   3B,W
087A:  BSF    03.5
087B:  MOVWF  07
087C:  BCF    03.5
087D:  BTFSS  07.2
087E:  GOTO   087
....................             while(input(done)); 
087F:  BSF    3B.2
0880:  MOVF   3B,W
0881:  BSF    03.5
0882:  MOVWF  07
0883:  BCF    03.5
0884:  BTFSC  07.2
0885:  GOTO   07F
....................             goto end; 
0886:  GOTO   104
....................           
....................          } 
0887:  GOTO   032
....................       } 
....................        
....................    d:  
....................    lcd_gotoxy(1,2); 
0888:  MOVLW  01
0889:  MOVWF  4A
088A:  MOVLW  02
088B:  MOVWF  4B
088C:  BCF    0A.3
088D:  CALL   389
088E:  BSF    0A.3
....................    printf(lcd_putc,"Dakika : %2d         ", dakika);  
088F:  MOVLW  25
0890:  BSF    03.6
0891:  MOVWF  0D
0892:  MOVLW  00
0893:  MOVWF  0F
0894:  BCF    03.0
0895:  MOVLW  09
0896:  BCF    03.6
0897:  MOVWF  3C
0898:  BCF    0A.3
0899:  CALL   748
089A:  BSF    0A.3
089B:  MOVF   31,W
089C:  MOVWF  3C
089D:  MOVLW  11
089E:  MOVWF  3D
089F:  BCF    0A.3
08A0:  CALL   79C
08A1:  BSF    0A.3
08A2:  MOVLW  2B
08A3:  BSF    03.6
08A4:  MOVWF  0D
08A5:  MOVLW  00
08A6:  MOVWF  0F
08A7:  BCF    03.0
08A8:  MOVLW  09
08A9:  BCF    03.6
08AA:  MOVWF  3C
08AB:  BCF    0A.3
08AC:  CALL   748
08AD:  BSF    0A.3
....................       
....................       while(mode==1){ 
08AE:  DECFSZ 32,W
08AF:  GOTO   103
....................          while(input(select)){ 
08B0:  BSF    3B.1
08B1:  MOVF   3B,W
08B2:  BSF    03.5
08B3:  MOVWF  07
08B4:  BCF    03.5
08B5:  BTFSS  07.1
08B6:  GOTO   0E0
....................             dakika++; 
08B7:  INCF   31,F
....................             if(dakika>59) dakika=0; 
08B8:  MOVF   31,W
08B9:  SUBLW  3B
08BA:  BTFSS  03.0
08BB:  CLRF   31
....................             lcd_gotoxy(10,2); 
08BC:  MOVLW  0A
08BD:  MOVWF  4A
08BE:  MOVLW  02
08BF:  MOVWF  4B
08C0:  BCF    0A.3
08C1:  CALL   389
08C2:  BSF    0A.3
....................             printf(lcd_putc,"%2d          ", dakika); 
08C3:  MOVF   31,W
08C4:  MOVWF  3C
08C5:  MOVLW  11
08C6:  MOVWF  3D
08C7:  BCF    0A.3
08C8:  CALL   79C
08C9:  BSF    0A.3
08CA:  MOVLW  31
08CB:  BSF    03.6
08CC:  MOVWF  0D
08CD:  MOVLW  00
08CE:  MOVWF  0F
08CF:  BSF    03.0
08D0:  MOVLW  0A
08D1:  BCF    03.6
08D2:  MOVWF  3C
08D3:  BCF    0A.3
08D4:  CALL   748
08D5:  BSF    0A.3
....................             delay_ms(300);   
08D6:  MOVLW  02
08D7:  MOVWF  3C
08D8:  MOVLW  96
08D9:  MOVWF  4A
08DA:  BCF    0A.3
08DB:  CALL   0E5
08DC:  BSF    0A.3
08DD:  DECFSZ 3C,F
08DE:  GOTO   0D8
08DF:  GOTO   0B0
....................          } 
....................          yd=dakika; 
08E0:  MOVF   31,W
08E1:  MOVWF  3A
....................          if(input(menu)){ 
08E2:  BSF    3B.0
08E3:  MOVF   3B,W
08E4:  BSF    03.5
08E5:  MOVWF  07
08E6:  BCF    03.5
08E7:  BTFSS  07.0
08E8:  GOTO   0F2
....................             while(input(menu)); 
08E9:  BSF    3B.0
08EA:  MOVF   3B,W
08EB:  BSF    03.5
08EC:  MOVWF  07
08ED:  BCF    03.5
08EE:  BTFSC  07.0
08EF:  GOTO   0E9
....................             mode=0; 
08F0:  CLRF   32
....................             goto s; 
08F1:  GOTO   00B
....................          } 
....................           
....................           
....................          if(input(done)){ 
08F2:  BSF    3B.2
08F3:  MOVF   3B,W
08F4:  BSF    03.5
08F5:  MOVWF  07
08F6:  BCF    03.5
08F7:  BTFSS  07.2
08F8:  GOTO   102
....................             while(input(done)); 
08F9:  BSF    3B.2
08FA:  MOVF   3B,W
08FB:  BSF    03.5
08FC:  MOVWF  07
08FD:  BCF    03.5
08FE:  BTFSC  07.2
08FF:  GOTO   0F9
....................             mode=0; 
0900:  CLRF   32
....................             goto end; 
0901:  GOTO   104
....................           
....................          } 
0902:  GOTO   0AE
....................       } 
0903:  GOTO   032
....................    } 
....................    end : 
....................    rtc_set_datetime(gun, ay, yil, haftanin_gunu, saat, dakika); 
0904:  MOVF   2B,W
0905:  MOVWF  3D
0906:  MOVF   2C,W
0907:  MOVWF  3E
0908:  MOVF   2D,W
0909:  MOVWF  3F
090A:  MOVF   2E,W
090B:  MOVWF  40
090C:  MOVF   2F,W
090D:  MOVWF  41
090E:  MOVF   31,W
090F:  MOVWF  42
0910:  BCF    0A.3
0911:  CALL   2B3
0912:  BSF    0A.3
....................    break; 
0913:  BSF    0A.3
0914:  BCF    0A.4
0915:  GOTO   4FB (RETURN)
.................... } 
....................  
.................... void set_date(){ 
....................    mode=0; 
0916:  CLRF   32
....................    gun=0; 
0917:  CLRF   2B
....................    ay=0; 
0918:  CLRF   2C
....................    yil=0; 
0919:  CLRF   2D
....................    haftanin_gunu=1; 
091A:  MOVLW  01
091B:  MOVWF  2E
....................     
....................    printf(lcd_putc,"\f  tarih Ayari          "); 
091C:  MOVLW  37
091D:  BSF    03.6
091E:  MOVWF  0D
091F:  MOVLW  00
0920:  MOVWF  0F
0921:  BCF    0A.3
0922:  BCF    03.6
0923:  CALL   54F
0924:  BSF    0A.3
....................     
....................    g:  
....................     
....................    lcd_gotoxy(1,2); 
0925:  MOVLW  01
0926:  MOVWF  4A
0927:  MOVLW  02
0928:  MOVWF  4B
0929:  BCF    0A.3
092A:  CALL   389
092B:  BSF    0A.3
....................    printf(lcd_putc,"Gun : %2d         ", gun); 
092C:  MOVLW  44
092D:  BSF    03.6
092E:  MOVWF  0D
092F:  MOVLW  00
0930:  MOVWF  0F
0931:  BCF    03.0
0932:  MOVLW  06
0933:  BCF    03.6
0934:  MOVWF  3C
0935:  BCF    0A.3
0936:  CALL   748
0937:  BSF    0A.3
0938:  MOVF   2B,W
0939:  MOVWF  3C
093A:  MOVLW  11
093B:  MOVWF  3D
093C:  BCF    0A.3
093D:  CALL   79C
093E:  BSF    0A.3
093F:  MOVLW  48
0940:  BSF    03.6
0941:  MOVWF  0D
0942:  MOVLW  00
0943:  MOVWF  0F
0944:  BSF    03.0
0945:  MOVLW  09
0946:  BCF    03.6
0947:  MOVWF  3C
0948:  BCF    0A.3
0949:  CALL   748
094A:  BSF    0A.3
....................    while(1){ 
....................       while(mode==0){ 
094B:  MOVF   32,F
094C:  BTFSS  03.2
094D:  GOTO   1A0
....................          while(input(select)){ 
094E:  BSF    3B.1
094F:  MOVF   3B,W
0950:  BSF    03.5
0951:  MOVWF  07
0952:  BCF    03.5
0953:  BTFSS  07.1
0954:  GOTO   17E
....................             gun++; 
0955:  INCF   2B,F
....................             if(gun>31) saat=0; 
0956:  MOVF   2B,W
0957:  SUBLW  1F
0958:  BTFSS  03.0
0959:  CLRF   2F
....................             lcd_gotoxy(7,2); 
095A:  MOVLW  07
095B:  MOVWF  4A
095C:  MOVLW  02
095D:  MOVWF  4B
095E:  BCF    0A.3
095F:  CALL   389
0960:  BSF    0A.3
....................             printf(lcd_putc,"%2d            ", gun); 
0961:  MOVF   2B,W
0962:  MOVWF  3C
0963:  MOVLW  11
0964:  MOVWF  3D
0965:  BCF    0A.3
0966:  CALL   79C
0967:  BSF    0A.3
0968:  MOVLW  4F
0969:  BSF    03.6
096A:  MOVWF  0D
096B:  MOVLW  00
096C:  MOVWF  0F
096D:  BSF    03.0
096E:  MOVLW  0C
096F:  BCF    03.6
0970:  MOVWF  3C
0971:  BCF    0A.3
0972:  CALL   748
0973:  BSF    0A.3
....................             delay_ms(300); 
0974:  MOVLW  02
0975:  MOVWF  3C
0976:  MOVLW  96
0977:  MOVWF  4A
0978:  BCF    0A.3
0979:  CALL   0E5
097A:  BSF    0A.3
097B:  DECFSZ 3C,F
097C:  GOTO   176
097D:  GOTO   14E
....................                
....................          } 
....................           
....................          if(input(menu)){ 
097E:  BSF    3B.0
097F:  MOVF   3B,W
0980:  BSF    03.5
0981:  MOVWF  07
0982:  BCF    03.5
0983:  BTFSS  07.0
0984:  GOTO   18F
....................             while(input(menu)); 
0985:  BSF    3B.0
0986:  MOVF   3B,W
0987:  BSF    03.5
0988:  MOVWF  07
0989:  BCF    03.5
098A:  BTFSC  07.0
098B:  GOTO   185
....................             mode=1; 
098C:  MOVLW  01
098D:  MOVWF  32
....................             goto a; 
098E:  GOTO   1A0
....................          } 
....................           
....................          if(input(done)){ 
098F:  BSF    3B.2
0990:  MOVF   3B,W
0991:  BSF    03.5
0992:  MOVWF  07
0993:  BCF    03.5
0994:  BTFSS  07.2
0995:  GOTO   19F
....................             while(input(done)); 
0996:  BSF    3B.2
0997:  MOVF   3B,W
0998:  BSF    03.5
0999:  MOVWF  07
099A:  BCF    03.5
099B:  BTFSC  07.2
099C:  GOTO   196
....................             mode=0; 
099D:  CLRF   32
....................             goto end; 
099E:  GOTO   343
....................           
....................          } 
099F:  GOTO   14B
....................       } 
....................        
....................    a:  
....................    lcd_gotoxy(1,2); 
09A0:  MOVLW  01
09A1:  MOVWF  4A
09A2:  MOVLW  02
09A3:  MOVWF  4B
09A4:  BCF    0A.3
09A5:  CALL   389
09A6:  BSF    0A.3
....................    printf(lcd_putc,"Ay : %2d             ", ay);  
09A7:  MOVLW  56
09A8:  BSF    03.6
09A9:  MOVWF  0D
09AA:  MOVLW  00
09AB:  MOVWF  0F
09AC:  BCF    03.0
09AD:  MOVLW  05
09AE:  BCF    03.6
09AF:  MOVWF  3C
09B0:  BCF    0A.3
09B1:  CALL   748
09B2:  BSF    0A.3
09B3:  MOVF   2C,W
09B4:  MOVWF  3C
09B5:  MOVLW  11
09B6:  MOVWF  3D
09B7:  BCF    0A.3
09B8:  CALL   79C
09B9:  BSF    0A.3
09BA:  MOVLW  5A
09BB:  BSF    03.6
09BC:  MOVWF  0D
09BD:  MOVLW  00
09BE:  MOVWF  0F
09BF:  BCF    03.0
09C0:  MOVLW  0D
09C1:  BCF    03.6
09C2:  MOVWF  3C
09C3:  BCF    0A.3
09C4:  CALL   748
09C5:  BSF    0A.3
....................       
....................       while(mode==1){ 
09C6:  DECFSZ 32,W
09C7:  GOTO   21C
....................          while(input(select)){ 
09C8:  BSF    3B.1
09C9:  MOVF   3B,W
09CA:  BSF    03.5
09CB:  MOVWF  07
09CC:  BCF    03.5
09CD:  BTFSS  07.1
09CE:  GOTO   1FA
....................             ay++; 
09CF:  INCF   2C,F
....................             if(ay>12) ay=1; 
09D0:  MOVF   2C,W
09D1:  SUBLW  0C
09D2:  BTFSC  03.0
09D3:  GOTO   1D6
09D4:  MOVLW  01
09D5:  MOVWF  2C
....................             lcd_gotoxy(6,2); 
09D6:  MOVLW  06
09D7:  MOVWF  4A
09D8:  MOVLW  02
09D9:  MOVWF  4B
09DA:  BCF    0A.3
09DB:  CALL   389
09DC:  BSF    0A.3
....................             printf(lcd_putc,"%2d        ", ay); 
09DD:  MOVF   2C,W
09DE:  MOVWF  3C
09DF:  MOVLW  11
09E0:  MOVWF  3D
09E1:  BCF    0A.3
09E2:  CALL   79C
09E3:  BSF    0A.3
09E4:  MOVLW  62
09E5:  BSF    03.6
09E6:  MOVWF  0D
09E7:  MOVLW  00
09E8:  MOVWF  0F
09E9:  BSF    03.0
09EA:  MOVLW  08
09EB:  BCF    03.6
09EC:  MOVWF  3C
09ED:  BCF    0A.3
09EE:  CALL   748
09EF:  BSF    0A.3
....................             delay_ms(300);   
09F0:  MOVLW  02
09F1:  MOVWF  3C
09F2:  MOVLW  96
09F3:  MOVWF  4A
09F4:  BCF    0A.3
09F5:  CALL   0E5
09F6:  BSF    0A.3
09F7:  DECFSZ 3C,F
09F8:  GOTO   1F2
09F9:  GOTO   1C8
....................          } 
....................          if(input(menu)){ 
09FA:  BSF    3B.0
09FB:  MOVF   3B,W
09FC:  BSF    03.5
09FD:  MOVWF  07
09FE:  BCF    03.5
09FF:  BTFSS  07.0
0A00:  GOTO   20B
....................             while(input(menu)); 
0A01:  BSF    3B.0
0A02:  MOVF   3B,W
0A03:  BSF    03.5
0A04:  MOVWF  07
0A05:  BCF    03.5
0A06:  BTFSC  07.0
0A07:  GOTO   201
....................             mode=2; 
0A08:  MOVLW  02
0A09:  MOVWF  32
....................             goto y; 
0A0A:  GOTO   21C
....................          } 
....................           
....................          if(input(done)){ 
0A0B:  BSF    3B.2
0A0C:  MOVF   3B,W
0A0D:  BSF    03.5
0A0E:  MOVWF  07
0A0F:  BCF    03.5
0A10:  BTFSS  07.2
0A11:  GOTO   21B
....................             while(input(done)); 
0A12:  BSF    3B.2
0A13:  MOVF   3B,W
0A14:  BSF    03.5
0A15:  MOVWF  07
0A16:  BCF    03.5
0A17:  BTFSC  07.2
0A18:  GOTO   212
....................             mode=0; 
0A19:  CLRF   32
....................             goto end; 
0A1A:  GOTO   343
....................           
....................          } 
0A1B:  GOTO   1C6
....................       } 
....................  
....................    y:  
....................    lcd_gotoxy(1,2); 
0A1C:  MOVLW  01
0A1D:  MOVWF  4A
0A1E:  MOVLW  02
0A1F:  MOVWF  4B
0A20:  BCF    0A.3
0A21:  CALL   389
0A22:  BSF    0A.3
....................    printf(lcd_putc,"Yil : 20%2d      ", yil);  
0A23:  MOVLW  67
0A24:  BSF    03.6
0A25:  MOVWF  0D
0A26:  MOVLW  00
0A27:  MOVWF  0F
0A28:  BCF    03.0
0A29:  MOVLW  08
0A2A:  BCF    03.6
0A2B:  MOVWF  3C
0A2C:  BCF    0A.3
0A2D:  CALL   748
0A2E:  BSF    0A.3
0A2F:  MOVF   2D,W
0A30:  MOVWF  3C
0A31:  MOVLW  11
0A32:  MOVWF  3D
0A33:  BCF    0A.3
0A34:  CALL   79C
0A35:  BSF    0A.3
0A36:  MOVLW  6C
0A37:  BSF    03.6
0A38:  MOVWF  0D
0A39:  MOVLW  00
0A3A:  MOVWF  0F
0A3B:  BSF    03.0
0A3C:  MOVLW  06
0A3D:  BCF    03.6
0A3E:  MOVWF  3C
0A3F:  BCF    0A.3
0A40:  CALL   748
0A41:  BSF    0A.3
....................       
....................       while(mode==2){ 
0A42:  MOVF   32,W
0A43:  SUBLW  02
0A44:  BTFSS  03.2
0A45:  GOTO   2A3
....................          while(input(select)){ 
0A46:  BSF    3B.1
0A47:  MOVF   3B,W
0A48:  BSF    03.5
0A49:  MOVWF  07
0A4A:  BCF    03.5
0A4B:  BTFSS  07.1
0A4C:  GOTO   282
....................             yil++; 
0A4D:  INCF   2D,F
....................             if(yil>30) yil=18; 
0A4E:  MOVF   2D,W
0A4F:  SUBLW  1E
0A50:  BTFSC  03.0
0A51:  GOTO   254
0A52:  MOVLW  12
0A53:  MOVWF  2D
....................             lcd_gotoxy(7,2); 
0A54:  MOVLW  07
0A55:  MOVWF  4A
0A56:  MOVLW  02
0A57:  MOVWF  4B
0A58:  BCF    0A.3
0A59:  CALL   389
0A5A:  BSF    0A.3
....................             printf(lcd_putc,"20%2d    ", yil); 
0A5B:  MOVLW  32
0A5C:  MOVWF  49
0A5D:  BCF    0A.3
0A5E:  CALL   39B
0A5F:  BSF    0A.3
0A60:  MOVLW  30
0A61:  MOVWF  49
0A62:  BCF    0A.3
0A63:  CALL   39B
0A64:  BSF    0A.3
0A65:  MOVF   2D,W
0A66:  MOVWF  3C
0A67:  MOVLW  11
0A68:  MOVWF  3D
0A69:  BCF    0A.3
0A6A:  CALL   79C
0A6B:  BSF    0A.3
0A6C:  MOVLW  72
0A6D:  BSF    03.6
0A6E:  MOVWF  0D
0A6F:  MOVLW  00
0A70:  MOVWF  0F
0A71:  BSF    03.0
0A72:  MOVLW  04
0A73:  BCF    03.6
0A74:  MOVWF  3C
0A75:  BCF    0A.3
0A76:  CALL   748
0A77:  BSF    0A.3
....................             delay_ms(300);   
0A78:  MOVLW  02
0A79:  MOVWF  3C
0A7A:  MOVLW  96
0A7B:  MOVWF  4A
0A7C:  BCF    0A.3
0A7D:  CALL   0E5
0A7E:  BSF    0A.3
0A7F:  DECFSZ 3C,F
0A80:  GOTO   27A
0A81:  GOTO   246
....................          } 
....................          if(input(menu)){ 
0A82:  BSF    3B.0
0A83:  MOVF   3B,W
0A84:  BSF    03.5
0A85:  MOVWF  07
0A86:  BCF    03.5
0A87:  BTFSS  07.0
0A88:  GOTO   293
....................             while(input(menu)); 
0A89:  BSF    3B.0
0A8A:  MOVF   3B,W
0A8B:  BSF    03.5
0A8C:  MOVWF  07
0A8D:  BCF    03.5
0A8E:  BTFSC  07.0
0A8F:  GOTO   289
....................             mode=3; 
0A90:  MOVLW  03
0A91:  MOVWF  32
....................             goto w; 
0A92:  GOTO   2A3
....................          }   
....................        
....................           
....................          if(input(done)){ 
0A93:  BSF    3B.2
0A94:  MOVF   3B,W
0A95:  BSF    03.5
0A96:  MOVWF  07
0A97:  BCF    03.5
0A98:  BTFSS  07.2
0A99:  GOTO   2A2
....................             while(input(done)); 
0A9A:  BSF    3B.2
0A9B:  MOVF   3B,W
0A9C:  BSF    03.5
0A9D:  MOVWF  07
0A9E:  BCF    03.5
0A9F:  BTFSC  07.2
0AA0:  GOTO   29A
....................             goto end; 
0AA1:  GOTO   343
....................           
....................          } 
0AA2:  GOTO   242
....................       } 
....................        
....................    w:  
....................    lcd_gotoxy(1,2); 
0AA3:  MOVLW  01
0AA4:  MOVWF  4A
0AA5:  MOVLW  02
0AA6:  MOVWF  4B
0AA7:  BCF    0A.3
0AA8:  CALL   389
0AA9:  BSF    0A.3
....................    printf(lcd_putc,"gun adi : PZT     ");  
0AAA:  MOVLW  75
0AAB:  BSF    03.6
0AAC:  MOVWF  0D
0AAD:  MOVLW  00
0AAE:  MOVWF  0F
0AAF:  BCF    0A.3
0AB0:  BCF    03.6
0AB1:  CALL   54F
0AB2:  BSF    0A.3
....................       
....................       while(mode==3){ 
0AB3:  MOVF   32,W
0AB4:  SUBLW  03
0AB5:  BTFSS  03.2
0AB6:  GOTO   342
....................          while(input(select)){ 
0AB7:  BSF    3B.1
0AB8:  MOVF   3B,W
0AB9:  BSF    03.5
0ABA:  MOVWF  07
0ABB:  BCF    03.5
0ABC:  BTFSS  07.1
0ABD:  GOTO   322
....................             haftanin_gunu++; 
0ABE:  INCF   2E,F
....................             if(haftanin_gunu>7) haftanin_gunu=1; 
0ABF:  MOVF   2E,W
0AC0:  SUBLW  07
0AC1:  BTFSC  03.0
0AC2:  GOTO   2C5
0AC3:  MOVLW  01
0AC4:  MOVWF  2E
....................             lcd_gotoxy(10,2); 
0AC5:  MOVLW  0A
0AC6:  MOVWF  4A
0AC7:  MOVLW  02
0AC8:  MOVWF  4B
0AC9:  BCF    0A.3
0ACA:  CALL   389
0ACB:  BSF    0A.3
....................       switch(haftanin_gunu)   
0ACC:  MOVLW  01
0ACD:  SUBWF  2E,W
0ACE:  ADDLW  F9
0ACF:  BTFSC  03.0
0AD0:  GOTO   318
0AD1:  ADDLW  07
0AD2:  GOTO   358
....................       {                       
....................          case 1: printf(lcd_putc,"PZT    "); break;  
0AD3:  MOVLW  7F
0AD4:  BSF    03.6
0AD5:  MOVWF  0D
0AD6:  MOVLW  00
0AD7:  MOVWF  0F
0AD8:  BCF    0A.3
0AD9:  BCF    03.6
0ADA:  CALL   54F
0ADB:  BSF    0A.3
0ADC:  GOTO   318
....................          case 2: printf(lcd_putc,"SAL    "); break;  
0ADD:  MOVLW  83
0ADE:  BSF    03.6
0ADF:  MOVWF  0D
0AE0:  MOVLW  00
0AE1:  MOVWF  0F
0AE2:  BCF    0A.3
0AE3:  BCF    03.6
0AE4:  CALL   54F
0AE5:  BSF    0A.3
0AE6:  GOTO   318
....................          case 3: printf(lcd_putc,"CRS    "); break;  
0AE7:  MOVLW  87
0AE8:  BSF    03.6
0AE9:  MOVWF  0D
0AEA:  MOVLW  00
0AEB:  MOVWF  0F
0AEC:  BCF    0A.3
0AED:  BCF    03.6
0AEE:  CALL   54F
0AEF:  BSF    0A.3
0AF0:  GOTO   318
....................          case 4: printf(lcd_putc,"PERS   "); break;  
0AF1:  MOVLW  8B
0AF2:  BSF    03.6
0AF3:  MOVWF  0D
0AF4:  MOVLW  00
0AF5:  MOVWF  0F
0AF6:  BCF    0A.3
0AF7:  BCF    03.6
0AF8:  CALL   54F
0AF9:  BSF    0A.3
0AFA:  GOTO   318
....................          case 5: printf(lcd_putc,"CUM    "); break;  
0AFB:  MOVLW  8F
0AFC:  BSF    03.6
0AFD:  MOVWF  0D
0AFE:  MOVLW  00
0AFF:  MOVWF  0F
0B00:  BCF    0A.3
0B01:  BCF    03.6
0B02:  CALL   54F
0B03:  BSF    0A.3
0B04:  GOTO   318
....................          case 6: printf(lcd_putc,"CTS    "); break;  
0B05:  MOVLW  93
0B06:  BSF    03.6
0B07:  MOVWF  0D
0B08:  MOVLW  00
0B09:  MOVWF  0F
0B0A:  BCF    0A.3
0B0B:  BCF    03.6
0B0C:  CALL   54F
0B0D:  BSF    0A.3
0B0E:  GOTO   318
....................          case 7: printf(lcd_putc,"PAZ    "); break;  
0B0F:  MOVLW  97
0B10:  BSF    03.6
0B11:  MOVWF  0D
0B12:  MOVLW  00
0B13:  MOVWF  0F
0B14:  BCF    0A.3
0B15:  BCF    03.6
0B16:  CALL   54F
0B17:  BSF    0A.3
....................       } 
....................             delay_ms(300);   
0B18:  MOVLW  02
0B19:  MOVWF  3C
0B1A:  MOVLW  96
0B1B:  MOVWF  4A
0B1C:  BCF    0A.3
0B1D:  CALL   0E5
0B1E:  BSF    0A.3
0B1F:  DECFSZ 3C,F
0B20:  GOTO   31A
0B21:  GOTO   2B7
....................          } 
....................          if(input(menu)){ 
0B22:  BSF    3B.0
0B23:  MOVF   3B,W
0B24:  BSF    03.5
0B25:  MOVWF  07
0B26:  BCF    03.5
0B27:  BTFSS  07.0
0B28:  GOTO   332
....................             while(input(menu)); 
0B29:  BSF    3B.0
0B2A:  MOVF   3B,W
0B2B:  BSF    03.5
0B2C:  MOVWF  07
0B2D:  BCF    03.5
0B2E:  BTFSC  07.0
0B2F:  GOTO   329
....................             mode=0; 
0B30:  CLRF   32
....................             goto g; 
0B31:  GOTO   125
....................          }   
....................        
....................           
....................          if(input(done)){ 
0B32:  BSF    3B.2
0B33:  MOVF   3B,W
0B34:  BSF    03.5
0B35:  MOVWF  07
0B36:  BCF    03.5
0B37:  BTFSS  07.2
0B38:  GOTO   341
....................             while(input(done)); 
0B39:  BSF    3B.2
0B3A:  MOVF   3B,W
0B3B:  BSF    03.5
0B3C:  MOVWF  07
0B3D:  BCF    03.5
0B3E:  BTFSC  07.2
0B3F:  GOTO   339
....................             goto end; 
0B40:  GOTO   343
....................           
....................          } 
0B41:  GOTO   2B3
....................       } 
0B42:  GOTO   14B
....................    } 
....................    end : 
....................    rtc_set_datetime(gun, ay, yil, (haftanin_gunu+1), saat, dakika); 
0B43:  MOVLW  01
0B44:  ADDWF  2E,W
0B45:  MOVWF  3C
0B46:  MOVF   2B,W
0B47:  MOVWF  3D
0B48:  MOVF   2C,W
0B49:  MOVWF  3E
0B4A:  MOVF   2D,W
0B4B:  MOVWF  3F
0B4C:  MOVF   3C,W
0B4D:  MOVWF  40
0B4E:  MOVF   2F,W
0B4F:  MOVWF  41
0B50:  MOVF   31,W
0B51:  MOVWF  42
0B52:  BCF    0A.3
0B53:  CALL   2B3
0B54:  BSF    0A.3
....................    break; 
0B55:  BSF    0A.3
0B56:  BCF    0A.4
0B57:  GOTO   529 (RETURN)
.................... } 
....................  
....................  
....................  
....................  
....................  
....................  
.................... void set_alarm(){ 
....................    saata=0; 
*
0B63:  CLRF   33
....................    dakikaa=0; 
0B64:  CLRF   34
....................    printf(lcd_putc,"\fCalar Saat Ayari"); 
0B65:  MOVLW  9B
0B66:  BSF    03.6
0B67:  MOVWF  0D
0B68:  MOVLW  00
0B69:  MOVWF  0F
0B6A:  BCF    0A.3
0B6B:  BCF    03.6
0B6C:  CALL   54F
0B6D:  BSF    0A.3
....................     
....................    s:  
....................     
....................    lcd_gotoxy(1,2); 
0B6E:  MOVLW  01
0B6F:  MOVWF  4A
0B70:  MOVLW  02
0B71:  MOVWF  4B
0B72:  BCF    0A.3
0B73:  CALL   389
0B74:  BSF    0A.3
....................    printf(lcd_putc,"Saat : %2d      ", saata); 
0B75:  MOVLW  A4
0B76:  BSF    03.6
0B77:  MOVWF  0D
0B78:  MOVLW  00
0B79:  MOVWF  0F
0B7A:  BCF    03.0
0B7B:  MOVLW  07
0B7C:  BCF    03.6
0B7D:  MOVWF  3C
0B7E:  BCF    0A.3
0B7F:  CALL   748
0B80:  BSF    0A.3
0B81:  MOVF   33,W
0B82:  MOVWF  3C
0B83:  MOVLW  11
0B84:  MOVWF  3D
0B85:  BCF    0A.3
0B86:  CALL   79C
0B87:  BSF    0A.3
0B88:  MOVLW  A9
0B89:  BSF    03.6
0B8A:  MOVWF  0D
0B8B:  MOVLW  00
0B8C:  MOVWF  0F
0B8D:  BCF    03.0
0B8E:  MOVLW  06
0B8F:  BCF    03.6
0B90:  MOVWF  3C
0B91:  BCF    0A.3
0B92:  CALL   748
0B93:  BSF    0A.3
....................    mode = 0; 
0B94:  CLRF   32
....................    while(1){ 
....................       while(mode==0){ 
0B95:  MOVF   32,F
0B96:  BTFSS  03.2
0B97:  GOTO   3E9
....................          while(input(select)){ 
0B98:  BSF    3B.1
0B99:  MOVF   3B,W
0B9A:  BSF    03.5
0B9B:  MOVWF  07
0B9C:  BCF    03.5
0B9D:  BTFSS  07.1
0B9E:  GOTO   3C8
....................             saata++; 
0B9F:  INCF   33,F
....................             if(saata>23) saata=0; 
0BA0:  MOVF   33,W
0BA1:  SUBLW  17
0BA2:  BTFSS  03.0
0BA3:  CLRF   33
....................             lcd_gotoxy(8,2); 
0BA4:  MOVLW  08
0BA5:  MOVWF  4A
0BA6:  MOVLW  02
0BA7:  MOVWF  4B
0BA8:  BCF    0A.3
0BA9:  CALL   389
0BAA:  BSF    0A.3
....................             printf(lcd_putc,"%2d       ", saata); 
0BAB:  MOVF   33,W
0BAC:  MOVWF  3C
0BAD:  MOVLW  11
0BAE:  MOVWF  3D
0BAF:  BCF    0A.3
0BB0:  CALL   79C
0BB1:  BSF    0A.3
0BB2:  MOVLW  AE
0BB3:  BSF    03.6
0BB4:  MOVWF  0D
0BB5:  MOVLW  00
0BB6:  MOVWF  0F
0BB7:  BSF    03.0
0BB8:  MOVLW  07
0BB9:  BCF    03.6
0BBA:  MOVWF  3C
0BBB:  BCF    0A.3
0BBC:  CALL   748
0BBD:  BSF    0A.3
....................             delay_ms(300); 
0BBE:  MOVLW  02
0BBF:  MOVWF  3C
0BC0:  MOVLW  96
0BC1:  MOVWF  4A
0BC2:  BCF    0A.3
0BC3:  CALL   0E5
0BC4:  BSF    0A.3
0BC5:  DECFSZ 3C,F
0BC6:  GOTO   3C0
0BC7:  GOTO   398
....................                
....................          } 
....................           
....................          if(input(menu)){ 
0BC8:  BSF    3B.0
0BC9:  MOVF   3B,W
0BCA:  BSF    03.5
0BCB:  MOVWF  07
0BCC:  BCF    03.5
0BCD:  BTFSS  07.0
0BCE:  GOTO   3D9
....................             while(input(menu)); 
0BCF:  BSF    3B.0
0BD0:  MOVF   3B,W
0BD1:  BSF    03.5
0BD2:  MOVWF  07
0BD3:  BCF    03.5
0BD4:  BTFSC  07.0
0BD5:  GOTO   3CF
....................             mode=1; 
0BD6:  MOVLW  01
0BD7:  MOVWF  32
....................             goto d; 
0BD8:  GOTO   3E9
....................          } 
....................           
....................          if(input(done)){ 
0BD9:  BSF    3B.2
0BDA:  MOVF   3B,W
0BDB:  BSF    03.5
0BDC:  MOVWF  07
0BDD:  BCF    03.5
0BDE:  BTFSS  07.2
0BDF:  GOTO   3E8
....................             while(input(done)); 
0BE0:  BSF    3B.2
0BE1:  MOVF   3B,W
0BE2:  BSF    03.5
0BE3:  MOVWF  07
0BE4:  BCF    03.5
0BE5:  BTFSC  07.2
0BE6:  GOTO   3E0
....................             goto end; 
0BE7:  GOTO   462
....................           
....................          } 
0BE8:  GOTO   395
....................       } 
....................        
....................    d:  
....................    lcd_gotoxy(1,2); 
0BE9:  MOVLW  01
0BEA:  MOVWF  4A
0BEB:  MOVLW  02
0BEC:  MOVWF  4B
0BED:  BCF    0A.3
0BEE:  CALL   389
0BEF:  BSF    0A.3
....................    printf(lcd_putc,"Dakika : %2d           ", dakikaa);  
0BF0:  MOVLW  B3
0BF1:  BSF    03.6
0BF2:  MOVWF  0D
0BF3:  MOVLW  00
0BF4:  MOVWF  0F
0BF5:  BCF    03.0
0BF6:  MOVLW  09
0BF7:  BCF    03.6
0BF8:  MOVWF  3C
0BF9:  BCF    0A.3
0BFA:  CALL   748
0BFB:  BSF    0A.3
0BFC:  MOVF   34,W
0BFD:  MOVWF  3C
0BFE:  MOVLW  11
0BFF:  MOVWF  3D
0C00:  BCF    0A.3
0C01:  CALL   79C
0C02:  BSF    0A.3
0C03:  MOVLW  B9
0C04:  BSF    03.6
0C05:  MOVWF  0D
0C06:  MOVLW  00
0C07:  MOVWF  0F
0C08:  BCF    03.0
0C09:  MOVLW  0B
0C0A:  BCF    03.6
0C0B:  MOVWF  3C
0C0C:  BCF    0A.3
0C0D:  CALL   748
0C0E:  BSF    0A.3
....................       
....................       while(mode==1){ 
0C0F:  DECFSZ 32,W
0C10:  GOTO   461
....................          while(input(select)){ 
0C11:  BSF    3B.1
0C12:  MOVF   3B,W
0C13:  BSF    03.5
0C14:  MOVWF  07
0C15:  BCF    03.5
0C16:  BTFSS  07.1
0C17:  GOTO   441
....................             dakikaa++; 
0C18:  INCF   34,F
....................             if(dakikaa>59) dakikaa=0; 
0C19:  MOVF   34,W
0C1A:  SUBLW  3B
0C1B:  BTFSS  03.0
0C1C:  CLRF   34
....................             lcd_gotoxy(10,2); 
0C1D:  MOVLW  0A
0C1E:  MOVWF  4A
0C1F:  MOVLW  02
0C20:  MOVWF  4B
0C21:  BCF    0A.3
0C22:  CALL   389
0C23:  BSF    0A.3
....................             printf(lcd_putc,"%2d        ", dakikaa); 
0C24:  MOVF   34,W
0C25:  MOVWF  3C
0C26:  MOVLW  11
0C27:  MOVWF  3D
0C28:  BCF    0A.3
0C29:  CALL   79C
0C2A:  BSF    0A.3
0C2B:  MOVLW  C0
0C2C:  BSF    03.6
0C2D:  MOVWF  0D
0C2E:  MOVLW  00
0C2F:  MOVWF  0F
0C30:  BSF    03.0
0C31:  MOVLW  08
0C32:  BCF    03.6
0C33:  MOVWF  3C
0C34:  BCF    0A.3
0C35:  CALL   748
0C36:  BSF    0A.3
....................             delay_ms(300);   
0C37:  MOVLW  02
0C38:  MOVWF  3C
0C39:  MOVLW  96
0C3A:  MOVWF  4A
0C3B:  BCF    0A.3
0C3C:  CALL   0E5
0C3D:  BSF    0A.3
0C3E:  DECFSZ 3C,F
0C3F:  GOTO   439
0C40:  GOTO   411
....................          } 
....................          if(input(menu)){ 
0C41:  BSF    3B.0
0C42:  MOVF   3B,W
0C43:  BSF    03.5
0C44:  MOVWF  07
0C45:  BCF    03.5
0C46:  BTFSS  07.0
0C47:  GOTO   451
....................             while(input(menu)); 
0C48:  BSF    3B.0
0C49:  MOVF   3B,W
0C4A:  BSF    03.5
0C4B:  MOVWF  07
0C4C:  BCF    03.5
0C4D:  BTFSC  07.0
0C4E:  GOTO   448
....................             mode=0; 
0C4F:  CLRF   32
....................             goto s; 
0C50:  GOTO   36E
....................          } 
....................           
....................           
....................          if(input(done)){ 
0C51:  BSF    3B.2
0C52:  MOVF   3B,W
0C53:  BSF    03.5
0C54:  MOVWF  07
0C55:  BCF    03.5
0C56:  BTFSS  07.2
0C57:  GOTO   460
....................             while(input(done)); 
0C58:  BSF    3B.2
0C59:  MOVF   3B,W
0C5A:  BSF    03.5
0C5B:  MOVWF  07
0C5C:  BCF    03.5
0C5D:  BTFSC  07.2
0C5E:  GOTO   458
....................             goto end; 
0C5F:  GOTO   462
....................           
....................          } 
0C60:  GOTO   40F
....................       } 
0C61:  GOTO   395
....................    } 
....................    end : 
....................    break; 
0C62:  BSF    0A.3
0C63:  BCF    0A.4
0C64:  GOTO   55E (RETURN)
.................... } 
....................  
.................... float get_temp(){ 
....................    unsigned long int temp; 
....................    float Tt, Vt; 
....................    temp = read_adc ();  
*
05A1:  BSF    1F.2
05A2:  BTFSC  1F.2
05A3:  GOTO   5A2
05A4:  BSF    03.5
05A5:  MOVF   1E,W
05A6:  BCF    03.5
05A7:  MOVWF  3C
05A8:  MOVF   1E,W
05A9:  MOVWF  3D
....................    //Tt = (temp*49+1)/100;  
....................     
....................    Tt= temp * (5.0/1023) * 100; 
05AA:  MOVF   3D,W
05AB:  MOVWF  47
05AC:  MOVF   3C,W
05AD:  MOVWF  46
*
05CA:  MOVF   7A,W
05CB:  MOVWF  4D
05CC:  MOVF   79,W
05CD:  MOVWF  4C
05CE:  MOVF   78,W
05CF:  MOVWF  4B
05D0:  MOVF   77,W
05D1:  MOVWF  4A
05D2:  MOVLW  0A
05D3:  MOVWF  51
05D4:  MOVLW  28
05D5:  MOVWF  50
05D6:  MOVLW  20
05D7:  MOVWF  4F
05D8:  MOVLW  77
05D9:  MOVWF  4E
05DA:  CALL   2F9
05DB:  MOVF   7A,W
05DC:  MOVWF  49
05DD:  MOVF   79,W
05DE:  MOVWF  48
05DF:  MOVF   78,W
05E0:  MOVWF  47
05E1:  MOVF   77,W
05E2:  MOVWF  46
05E3:  MOVF   7A,W
05E4:  MOVWF  4D
05E5:  MOVF   79,W
05E6:  MOVWF  4C
05E7:  MOVF   78,W
05E8:  MOVWF  4B
05E9:  MOVF   77,W
05EA:  MOVWF  4A
05EB:  CLRF   51
05EC:  CLRF   50
05ED:  MOVLW  48
05EE:  MOVWF  4F
05EF:  MOVLW  85
05F0:  MOVWF  4E
05F1:  CALL   2F9
05F2:  MOVF   7A,W
05F3:  MOVWF  41
05F4:  MOVF   79,W
05F5:  MOVWF  40
05F6:  MOVF   78,W
05F7:  MOVWF  3F
05F8:  MOVF   77,W
05F9:  MOVWF  3E
....................    //Vt=(4.88*bilgi)*1023;    
....................    //Tt=(Vt/10)+2;    // Her 10mV'ta 1 derece artma 
....................    delay_us(100); 
05FA:  MOVLW  20
05FB:  MOVWF  77
05FC:  DECFSZ 77,F
05FD:  GOTO   5FC
05FE:  GOTO   5FF
05FF:  NOP
....................    return (float)Tt; 
0600:  MOVF   3E,W
0601:  MOVWF  77
0602:  MOVF   3F,W
0603:  MOVWF  78
0604:  MOVF   40,W
0605:  MOVWF  79
0606:  MOVF   41,W
0607:  MOVWF  7A
....................     
.................... } 
....................  
.................... void check_alarm(){ 
....................       while((saat==saata)&&(dakika==dakikaa)){ 
*
06ED:  MOVF   33,W
06EE:  SUBWF  2F,W
06EF:  BTFSS  03.2
06F0:  GOTO   739
06F1:  MOVF   34,W
06F2:  SUBWF  31,W
06F3:  BTFSS  03.2
06F4:  GOTO   739
....................           
....................          printf(lcd_putc,"\f***  ALARM!  ***"); 
06F5:  MOVLW  C5
06F6:  BSF    03.6
06F7:  MOVWF  0D
06F8:  MOVLW  00
06F9:  MOVWF  0F
06FA:  BCF    03.6
06FB:  CALL   54F
....................          delay_ms(300); 
06FC:  MOVLW  02
06FD:  MOVWF  3C
06FE:  MOVLW  96
06FF:  MOVWF  4A
0700:  CALL   0E5
0701:  DECFSZ 3C,F
0702:  GOTO   6FE
....................          output_high(alarm); 
0703:  BSF    03.5
0704:  BCF    06.7
0705:  BCF    03.5
0706:  BSF    06.7
....................          if(input(menu)||input(select)||input(done)){ 
0707:  BSF    3B.0
0708:  MOVF   3B,W
0709:  BSF    03.5
070A:  MOVWF  07
070B:  BCF    03.5
070C:  BTFSC  07.0
070D:  GOTO   71C
070E:  BSF    3B.1
070F:  MOVF   3B,W
0710:  BSF    03.5
0711:  MOVWF  07
0712:  BCF    03.5
0713:  BTFSC  07.1
0714:  GOTO   71C
0715:  BSF    3B.2
0716:  MOVF   3B,W
0717:  BSF    03.5
0718:  MOVWF  07
0719:  BCF    03.5
071A:  BTFSS  07.2
071B:  GOTO   738
....................             while(input(menu)); 
071C:  BSF    3B.0
071D:  MOVF   3B,W
071E:  BSF    03.5
071F:  MOVWF  07
0720:  BCF    03.5
0721:  BTFSC  07.0
0722:  GOTO   71C
....................             while(input(select)); 
0723:  BSF    3B.1
0724:  MOVF   3B,W
0725:  BSF    03.5
0726:  MOVWF  07
0727:  BCF    03.5
0728:  BTFSC  07.1
0729:  GOTO   723
....................             while(input(done)); 
072A:  BSF    3B.2
072B:  MOVF   3B,W
072C:  BSF    03.5
072D:  MOVWF  07
072E:  BCF    03.5
072F:  BTFSC  07.2
0730:  GOTO   72A
....................             dakikaa=dakikaa-2; 
0731:  MOVLW  02
0732:  SUBWF  34,F
....................             output_low(alarm); 
0733:  BSF    03.5
0734:  BCF    06.7
0735:  BCF    03.5
0736:  BCF    06.7
....................             break; 
0737:  GOTO   739
....................          } 
0738:  GOTO   6ED
....................  
....................       } 
....................    } 
....................  
.................... /* 
.................... void check_alarm(int s, int sa, int d, int da){ 
....................  
....................    if((s==sa)&&(d==da)){ 
....................       while(1){ 
....................           
....................          printf(lcd_putc,"\f**ALARM CALIYOR*"); 
....................          delay_ms(300); 
....................          output_high(alarm); 
....................          while(input(menu)||input(select)||input(done)); 
....................          if(input(menu)&&input(select)&&input(done)){ 
....................             while(input(menu)); 
....................             while(input(select)); 
....................             while(input(done)); 
....................             dakikaa=dakikaa-2; 
....................             break; 
....................          } 
....................           
....................     
....................        
....................        
....................       } 
....................    } 
....................        
....................     
.................... } 
....................  
....................   */  
....................  
....................  
....................  
.................... //******************* ANA PROGRAM FONKSYONU ******************* 
.................... void main () 
*
0C65:  CLRF   2B
0C66:  CLRF   2C
0C67:  CLRF   2D
0C68:  CLRF   2E
0C69:  CLRF   2F
0C6A:  CLRF   31
0C6B:  CLRF   33
0C6C:  CLRF   34
0C6D:  MOVLW  FF
0C6E:  MOVWF  3B
0C6F:  BSF    03.5
0C70:  BSF    1F.0
0C71:  BSF    1F.1
0C72:  BSF    1F.2
0C73:  BCF    1F.3
0C74:  MOVLW  07
0C75:  MOVWF  1C
0C76:  BCF    03.7
0C77:  MOVLW  1F
0C78:  ANDWF  03,F
.................... {  
....................  
....................    setup_psp(PSP_DISABLED);        // PSP birimi devre d 
0C79:  BCF    09.4
....................    setup_timer_1(T1_DISABLED);     // T1 zamanlaycs devre d 
0C7A:  BCF    03.5
0C7B:  CLRF   10
....................    setup_timer_2(T2_DISABLED,0,1); // T2 zamanlaycs devre d 
0C7C:  MOVLW  00
0C7D:  MOVWF  78
0C7E:  MOVWF  12
0C7F:  MOVLW  00
0C80:  BSF    03.5
0C81:  MOVWF  12
....................    setup_CCP1(CCP_OFF);            // CCP1 birimi devre d 
0C82:  MOVLW  F0
0C83:  BCF    03.5
0C84:  ANDWF  17,F
....................    setup_CCP2(CCP_OFF);            // CCP2 birimi devre d 
0C85:  ANDWF  1D,F
....................  
....................    set_tris_a(0x01);  // RA0 Giri olarak ynlendiriliyor 
0C86:  MOVLW  01
0C87:  BSF    03.5
0C88:  MOVWF  05
....................    set_tris_b(0x00); 
0C89:  MOVLW  00
0C8A:  MOVWF  06
....................    set_tris_c(0xff); 
0C8B:  MOVLW  FF
0C8C:  MOVWF  07
0C8D:  BCF    03.5
0C8E:  MOVWF  3B
....................  
....................    setup_adc(adc_clock_div_32);  
0C8F:  BSF    03.5
0C90:  BCF    1F.6
0C91:  BCF    03.5
0C92:  BCF    1F.6
0C93:  BSF    1F.7
0C94:  BSF    03.5
0C95:  BSF    1F.7
0C96:  BCF    03.5
0C97:  BSF    1F.0
....................    setup_adc_ports(AN0);  
0C98:  BSF    03.5
0C99:  BCF    1F.0
0C9A:  BSF    1F.1
0C9B:  BSF    1F.2
0C9C:  BSF    1F.3
....................  
....................    lcd_init();    
0C9D:  BCF    0A.3
0C9E:  BCF    03.5
0C9F:  CALL   1B2
0CA0:  BSF    0A.3
....................  
....................    set_adc_channel(0);    
0CA1:  MOVLW  00
0CA2:  MOVWF  78
0CA3:  MOVF   1F,W
0CA4:  ANDLW  C7
0CA5:  IORWF  78,W
0CA6:  MOVWF  1F
....................    delay_us(20);          
0CA7:  MOVLW  06
0CA8:  MOVWF  77
0CA9:  DECFSZ 77,F
0CAA:  GOTO   4A9
0CAB:  NOP
....................  
....................    lcd_init();   
0CAC:  BCF    0A.3
0CAD:  CALL   1B2
0CAE:  BSF    0A.3
....................    rtc_init();   
0CAF:  BCF    0A.3
0CB0:  GOTO   240
0CB1:  BSF    0A.3
....................    rtc_set_datetime(11,12,13,4,16,38);  
0CB2:  MOVLW  0B
0CB3:  MOVWF  3D
0CB4:  MOVLW  0C
0CB5:  MOVWF  3E
0CB6:  MOVLW  0D
0CB7:  MOVWF  3F
0CB8:  MOVLW  04
0CB9:  MOVWF  40
0CBA:  MOVLW  10
0CBB:  MOVWF  41
0CBC:  MOVLW  26
0CBD:  MOVWF  42
0CBE:  BCF    0A.3
0CBF:  CALL   2B3
0CC0:  BSF    0A.3
....................    while(1){ 
....................     
....................           
....................        
....................       display(); 
0CC1:  BCF    0A.3
0CC2:  GOTO   59A
0CC3:  BSF    0A.3
....................        
....................          //check_alarm(saat, saata, dakika, dakikaa); 
....................       if(input(menu)){        while(input(menu)); 
0CC4:  BSF    3B.0
0CC5:  MOVF   3B,W
0CC6:  BSF    03.5
0CC7:  MOVWF  07
0CC8:  BCF    03.5
0CC9:  BTFSS  07.0
0CCA:  GOTO   55E
0CCB:  BSF    3B.0
0CCC:  MOVF   3B,W
0CCD:  BSF    03.5
0CCE:  MOVWF  07
0CCF:  BCF    03.5
0CD0:  BTFSC  07.0
0CD1:  GOTO   4CB
....................          printf(lcd_putc,"\f  Saat Ayari"); 
0CD2:  MOVLW  CE
0CD3:  BSF    03.6
0CD4:  MOVWF  0D
0CD5:  MOVLW  00
0CD6:  MOVWF  0F
0CD7:  BCF    0A.3
0CD8:  BCF    03.6
0CD9:  CALL   54F
0CDA:  BSF    0A.3
....................          while(1){ 
....................             if(input(menu)) { 
0CDB:  BSF    3B.0
0CDC:  MOVF   3B,W
0CDD:  BSF    03.5
0CDE:  MOVWF  07
0CDF:  BCF    03.5
0CE0:  BTFSS  07.0
0CE1:  GOTO   4EA
....................                while(input(menu)); 
0CE2:  BSF    3B.0
0CE3:  MOVF   3B,W
0CE4:  BSF    03.5
0CE5:  MOVWF  07
0CE6:  BCF    03.5
0CE7:  BTFSC  07.0
0CE8:  GOTO   4E2
....................                break; 
0CE9:  GOTO   4FB
....................             } 
....................             if(input(select)){ 
0CEA:  BSF    3B.1
0CEB:  MOVF   3B,W
0CEC:  BSF    03.5
0CED:  MOVWF  07
0CEE:  BCF    03.5
0CEF:  BTFSS  07.1
0CF0:  GOTO   4FA
....................                while(input(menu)); 
0CF1:  BSF    3B.0
0CF2:  MOVF   3B,W
0CF3:  BSF    03.5
0CF4:  MOVWF  07
0CF5:  BCF    03.5
0CF6:  BTFSC  07.0
0CF7:  GOTO   4F1
....................                set_clock(); 
0CF8:  GOTO   000
....................                break; 
0CF9:  GOTO   4FB
....................             } 
0CFA:  GOTO   4DB
....................          } 
....................           
....................          delay_ms(20); 
0CFB:  MOVLW  14
0CFC:  MOVWF  4A
0CFD:  BCF    0A.3
0CFE:  CALL   0E5
0CFF:  BSF    0A.3
....................          printf(lcd_putc,"\f  Tarih Ayari"); 
0D00:  MOVLW  D5
0D01:  BSF    03.6
0D02:  MOVWF  0D
0D03:  MOVLW  00
0D04:  MOVWF  0F
0D05:  BCF    0A.3
0D06:  BCF    03.6
0D07:  CALL   54F
0D08:  BSF    0A.3
....................          while(1){ 
....................             if(input(menu)){ 
0D09:  BSF    3B.0
0D0A:  MOVF   3B,W
0D0B:  BSF    03.5
0D0C:  MOVWF  07
0D0D:  BCF    03.5
0D0E:  BTFSS  07.0
0D0F:  GOTO   518
....................                while(input(menu)); 
0D10:  BSF    3B.0
0D11:  MOVF   3B,W
0D12:  BSF    03.5
0D13:  MOVWF  07
0D14:  BCF    03.5
0D15:  BTFSC  07.0
0D16:  GOTO   510
....................                break; 
0D17:  GOTO   529
....................             } 
....................             if(input(select)){ 
0D18:  BSF    3B.1
0D19:  MOVF   3B,W
0D1A:  BSF    03.5
0D1B:  MOVWF  07
0D1C:  BCF    03.5
0D1D:  BTFSS  07.1
0D1E:  GOTO   528
....................                while(input(select)); 
0D1F:  BSF    3B.1
0D20:  MOVF   3B,W
0D21:  BSF    03.5
0D22:  MOVWF  07
0D23:  BCF    03.5
0D24:  BTFSC  07.1
0D25:  GOTO   51F
....................                set_date(); 
0D26:  GOTO   116
....................                break; 
0D27:  GOTO   529
....................             } 
0D28:  GOTO   509
....................          } 
....................          while(input(menu)); 
0D29:  BSF    3B.0
0D2A:  MOVF   3B,W
0D2B:  BSF    03.5
0D2C:  MOVWF  07
0D2D:  BCF    03.5
0D2E:  BTFSC  07.0
0D2F:  GOTO   529
....................          delay_ms(20); 
0D30:  MOVLW  14
0D31:  MOVWF  4A
0D32:  BCF    0A.3
0D33:  CALL   0E5
0D34:  BSF    0A.3
....................          printf(lcd_putc,"\f  Alarm Ayari"); 
0D35:  MOVLW  DD
0D36:  BSF    03.6
0D37:  MOVWF  0D
0D38:  MOVLW  00
0D39:  MOVWF  0F
0D3A:  BCF    0A.3
0D3B:  BCF    03.6
0D3C:  CALL   54F
0D3D:  BSF    0A.3
....................          while(1){ 
....................             if(input(menu)){ 
0D3E:  BSF    3B.0
0D3F:  MOVF   3B,W
0D40:  BSF    03.5
0D41:  MOVWF  07
0D42:  BCF    03.5
0D43:  BTFSS  07.0
0D44:  GOTO   54D
....................                while(input(menu)); 
0D45:  BSF    3B.0
0D46:  MOVF   3B,W
0D47:  BSF    03.5
0D48:  MOVWF  07
0D49:  BCF    03.5
0D4A:  BTFSC  07.0
0D4B:  GOTO   545
....................                break; 
0D4C:  GOTO   55E
....................             } 
....................             if(input(select)){ 
0D4D:  BSF    3B.1
0D4E:  MOVF   3B,W
0D4F:  BSF    03.5
0D50:  MOVWF  07
0D51:  BCF    03.5
0D52:  BTFSS  07.1
0D53:  GOTO   55D
....................                while(input(select)); 
0D54:  BSF    3B.1
0D55:  MOVF   3B,W
0D56:  BSF    03.5
0D57:  MOVWF  07
0D58:  BCF    03.5
0D59:  BTFSC  07.1
0D5A:  GOTO   554
....................                set_alarm(); 
0D5B:  GOTO   363
....................                break; 
0D5C:  GOTO   55E
....................             } 
0D5D:  GOTO   53E
....................           
....................          } 
....................       } 
0D5E:  GOTO   4C1
....................        
....................   } 
.................... } 
....................  
0D5F:  SLEEP

Configuration Fuses:
   Word  1: 3F39   XT NOWDT NOPUT NOBROWNOUT NOLVP NOCPD NOWRT NODEBUG NOPROTECT
